
Drivers.axf:     file format elf32-littlearm


Disassembly of section .isr_vector:

08000000 <g_pfnVectors>:
 8000000:	20002800 	andcs	r2, r0, r0, lsl #16
 8000004:	08000241 	stmdaeq	r0, {r0, r6, r9}
 8000008:	08000291 	stmdaeq	r0, {r0, r4, r7, r9}
 800000c:	08000291 	stmdaeq	r0, {r0, r4, r7, r9}
 8000010:	08000291 	stmdaeq	r0, {r0, r4, r7, r9}
 8000014:	08000291 	stmdaeq	r0, {r0, r4, r7, r9}
 8000018:	08000291 	stmdaeq	r0, {r0, r4, r7, r9}
	...
 800002c:	08000291 	stmdaeq	r0, {r0, r4, r7, r9}
 8000030:	08000291 	stmdaeq	r0, {r0, r4, r7, r9}
 8000034:	00000000 	andeq	r0, r0, r0
 8000038:	08000291 	stmdaeq	r0, {r0, r4, r7, r9}
 800003c:	08000291 	stmdaeq	r0, {r0, r4, r7, r9}
 8000040:	08000291 	stmdaeq	r0, {r0, r4, r7, r9}
 8000044:	08000291 	stmdaeq	r0, {r0, r4, r7, r9}
 8000048:	08000291 	stmdaeq	r0, {r0, r4, r7, r9}
 800004c:	08000291 	stmdaeq	r0, {r0, r4, r7, r9}
 8000050:	08000291 	stmdaeq	r0, {r0, r4, r7, r9}
 8000054:	08000291 	stmdaeq	r0, {r0, r4, r7, r9}
 8000058:	08000635 	stmdaeq	r0, {r0, r2, r4, r5, r9, sl}
 800005c:	08000659 	stmdaeq	r0, {r0, r3, r4, r6, r9, sl}
 8000060:	0800067d 	stmdaeq	r0, {r0, r2, r3, r4, r5, r6, r9, sl}
 8000064:	080006a1 	stmdaeq	r0, {r0, r5, r7, r9, sl}
 8000068:	080006c5 	stmdaeq	r0, {r0, r2, r6, r7, r9, sl}
 800006c:	08000291 	stmdaeq	r0, {r0, r4, r7, r9}
 8000070:	08000291 	stmdaeq	r0, {r0, r4, r7, r9}
 8000074:	08000291 	stmdaeq	r0, {r0, r4, r7, r9}
 8000078:	08000291 	stmdaeq	r0, {r0, r4, r7, r9}
 800007c:	08000291 	stmdaeq	r0, {r0, r4, r7, r9}
 8000080:	08000291 	stmdaeq	r0, {r0, r4, r7, r9}
 8000084:	08000291 	stmdaeq	r0, {r0, r4, r7, r9}
 8000088:	08000291 	stmdaeq	r0, {r0, r4, r7, r9}
 800008c:	08000291 	stmdaeq	r0, {r0, r4, r7, r9}
 8000090:	08000291 	stmdaeq	r0, {r0, r4, r7, r9}
 8000094:	08000291 	stmdaeq	r0, {r0, r4, r7, r9}
 8000098:	08000291 	stmdaeq	r0, {r0, r4, r7, r9}
 800009c:	080006e9 	stmdaeq	r0, {r0, r3, r5, r6, r7, r9, sl}
 80000a0:	08000291 	stmdaeq	r0, {r0, r4, r7, r9}
 80000a4:	08000291 	stmdaeq	r0, {r0, r4, r7, r9}
 80000a8:	08000291 	stmdaeq	r0, {r0, r4, r7, r9}
 80000ac:	08000291 	stmdaeq	r0, {r0, r4, r7, r9}
 80000b0:	08000291 	stmdaeq	r0, {r0, r4, r7, r9}
 80000b4:	08000291 	stmdaeq	r0, {r0, r4, r7, r9}
 80000b8:	08000291 	stmdaeq	r0, {r0, r4, r7, r9}
 80000bc:	08000af9 	stmdaeq	r0, {r0, r3, r4, r5, r6, r7, r9, fp}
 80000c0:	08000bdd 	stmdaeq	r0, {r0, r2, r3, r4, r6, r7, r8, r9, fp}
 80000c4:	08000be9 	stmdaeq	r0, {r0, r3, r5, r6, r7, r8, r9, fp}
 80000c8:	08000bf5 	stmdaeq	r0, {r0, r2, r4, r5, r6, r7, r8, r9, fp}
 80000cc:	08000c01 	stmdaeq	r0, {r0, sl, fp}
 80000d0:	08000c5d 	stmdaeq	r0, {r0, r2, r3, r4, r6, sl, fp}
 80000d4:	08000cb9 	stmdaeq	r0, {r0, r3, r4, r5, r7, sl, fp}
 80000d8:	08000ccd 	stmdaeq	r0, {r0, r2, r3, r6, r7, sl, fp}
 80000dc:	08000ce1 	stmdaeq	r0, {r0, r5, r6, r7, sl, fp}
 80000e0:	08000791 	stmdaeq	r0, {r0, r4, r7, r8, r9, sl}
 80000e4:	08000291 	stmdaeq	r0, {r0, r4, r7, r9}
 80000e8:	00000000 	andeq	r0, r0, r0
 80000ec:	08000291 	stmdaeq	r0, {r0, r4, r7, r9}
 80000f0:	08000291 	stmdaeq	r0, {r0, r4, r7, r9}
 80000f4:	08000291 	stmdaeq	r0, {r0, r4, r7, r9}
 80000f8:	08000291 	stmdaeq	r0, {r0, r4, r7, r9}
 80000fc:	08000291 	stmdaeq	r0, {r0, r4, r7, r9}
 8000100:	08000291 	stmdaeq	r0, {r0, r4, r7, r9}
 8000104:	08000291 	stmdaeq	r0, {r0, r4, r7, r9}
 8000108:	08000291 	stmdaeq	r0, {r0, r4, r7, r9}
 800010c:	08000291 	stmdaeq	r0, {r0, r4, r7, r9}
 8000110:	08000291 	stmdaeq	r0, {r0, r4, r7, r9}
 8000114:	08000291 	stmdaeq	r0, {r0, r4, r7, r9}
 8000118:	08000291 	stmdaeq	r0, {r0, r4, r7, r9}
 800011c:	08000291 	stmdaeq	r0, {r0, r4, r7, r9}
 8000120:	08000291 	stmdaeq	r0, {r0, r4, r7, r9}
 8000124:	08000291 	stmdaeq	r0, {r0, r4, r7, r9}
 8000128:	08000291 	stmdaeq	r0, {r0, r4, r7, r9}
 800012c:	08000291 	stmdaeq	r0, {r0, r4, r7, r9}

Disassembly of section .text:

08000130 <__do_global_dtors_aux>:
 8000130:	b510      	push	{r4, lr}
 8000132:	4c05      	ldr	r4, [pc, #20]	; (8000148 <__do_global_dtors_aux+0x18>)
 8000134:	7823      	ldrb	r3, [r4, #0]
 8000136:	b933      	cbnz	r3, 8000146 <__do_global_dtors_aux+0x16>
 8000138:	4b04      	ldr	r3, [pc, #16]	; (800014c <__do_global_dtors_aux+0x1c>)
 800013a:	b113      	cbz	r3, 8000142 <__do_global_dtors_aux+0x12>
 800013c:	4804      	ldr	r0, [pc, #16]	; (8000150 <__do_global_dtors_aux+0x20>)
 800013e:	f3af 8000 	nop.w
 8000142:	2301      	movs	r3, #1
 8000144:	7023      	strb	r3, [r4, #0]
 8000146:	bd10      	pop	{r4, pc}
 8000148:	20000000 	andcs	r0, r0, r0
 800014c:	00000000 	andeq	r0, r0, r0
 8000150:	08000d3c 	stmdaeq	r0, {r2, r3, r4, r5, r8, sl, fp}

08000154 <frame_dummy>:
 8000154:	b508      	push	{r3, lr}
 8000156:	4b03      	ldr	r3, [pc, #12]	; (8000164 <frame_dummy+0x10>)
 8000158:	b11b      	cbz	r3, 8000162 <frame_dummy+0xe>
 800015a:	4903      	ldr	r1, [pc, #12]	; (8000168 <frame_dummy+0x14>)
 800015c:	4803      	ldr	r0, [pc, #12]	; (800016c <frame_dummy+0x18>)
 800015e:	f3af 8000 	nop.w
 8000162:	bd08      	pop	{r3, pc}
 8000164:	00000000 	andeq	r0, r0, r0
 8000168:	20000004 	andcs	r0, r0, r4
 800016c:	08000d3c 	stmdaeq	r0, {r2, r3, r4, r5, r8, sl, fp}

08000170 <SWITCH_CPU_AccessLevel>:
 8000170:	b480      	push	{r7}
 8000172:	b083      	sub	sp, #12
 8000174:	af00      	add	r7, sp, #0
 8000176:	4603      	mov	r3, r0
 8000178:	71fb      	strb	r3, [r7, #7]
 800017a:	79fb      	ldrb	r3, [r7, #7]
 800017c:	2b00      	cmp	r3, #0
 800017e:	d002      	beq.n	8000186 <SWITCH_CPU_AccessLevel+0x16>
 8000180:	2b01      	cmp	r3, #1
 8000182:	d009      	beq.n	8000198 <SWITCH_CPU_AccessLevel+0x28>
 8000184:	e00f      	b.n	80001a6 <SWITCH_CPU_AccessLevel+0x36>
 8000186:	f3ef 8314 	mrs	r3, CONTROL
 800018a:	ea4f 0353 	mov.w	r3, r3, lsr #1
 800018e:	ea4f 0343 	mov.w	r3, r3, lsl #1
 8000192:	f383 8814 	msr	CONTROL, r3
 8000196:	e006      	b.n	80001a6 <SWITCH_CPU_AccessLevel+0x36>
 8000198:	f3ef 8314 	mrs	r3, CONTROL
 800019c:	f043 0301 	orr.w	r3, r3, #1
 80001a0:	f383 8814 	msr	CONTROL, r3
 80001a4:	bf00      	nop
 80001a6:	bf00      	nop
 80001a8:	370c      	adds	r7, #12
 80001aa:	46bd      	mov	sp, r7
 80001ac:	bc80      	pop	{r7}
 80001ae:	4770      	bx	lr

080001b0 <clock_init>:
 80001b0:	b480      	push	{r7}
 80001b2:	af00      	add	r7, sp, #0
 80001b4:	4b07      	ldr	r3, [pc, #28]	; (80001d4 <clock_init+0x24>)
 80001b6:	699b      	ldr	r3, [r3, #24]
 80001b8:	4a06      	ldr	r2, [pc, #24]	; (80001d4 <clock_init+0x24>)
 80001ba:	f043 0308 	orr.w	r3, r3, #8
 80001be:	6193      	str	r3, [r2, #24]
 80001c0:	4b04      	ldr	r3, [pc, #16]	; (80001d4 <clock_init+0x24>)
 80001c2:	699b      	ldr	r3, [r3, #24]
 80001c4:	4a03      	ldr	r2, [pc, #12]	; (80001d4 <clock_init+0x24>)
 80001c6:	f043 0301 	orr.w	r3, r3, #1
 80001ca:	6193      	str	r3, [r2, #24]
 80001cc:	bf00      	nop
 80001ce:	46bd      	mov	sp, r7
 80001d0:	bc80      	pop	{r7}
 80001d2:	4770      	bx	lr
 80001d4:	40021000 	andmi	r1, r2, r0

080001d8 <EXTI9_CallBack>:
 80001d8:	b580      	push	{r7, lr}
 80001da:	af00      	add	r7, sp, #0
 80001dc:	4b03      	ldr	r3, [pc, #12]	; (80001ec <EXTI9_CallBack+0x14>)
 80001de:	2201      	movs	r2, #1
 80001e0:	601a      	str	r2, [r3, #0]
 80001e2:	2000      	movs	r0, #0
 80001e4:	f7ff ffc4 	bl	8000170 <SWITCH_CPU_AccessLevel>
 80001e8:	bf00      	nop
 80001ea:	bd80      	pop	{r7, pc}
 80001ec:	2000001c 	andcs	r0, r0, ip, lsl r0

080001f0 <main>:
 80001f0:	b580      	push	{r7, lr}
 80001f2:	b086      	sub	sp, #24
 80001f4:	af00      	add	r7, sp, #0
 80001f6:	f7ff ffdb 	bl	80001b0 <clock_init>
 80001fa:	4a0e      	ldr	r2, [pc, #56]	; (8000234 <main+0x44>)
 80001fc:	1d3b      	adds	r3, r7, #4
 80001fe:	ca07      	ldmia	r2, {r0, r1, r2}
 8000200:	e883 0007 	stmia.w	r3, {r0, r1, r2}
 8000204:	2300      	movs	r3, #0
 8000206:	743b      	strb	r3, [r7, #16]
 8000208:	4b0b      	ldr	r3, [pc, #44]	; (8000238 <main+0x48>)
 800020a:	617b      	str	r3, [r7, #20]
 800020c:	2300      	movs	r3, #0
 800020e:	747b      	strb	r3, [r7, #17]
 8000210:	1d3b      	adds	r3, r7, #4
 8000212:	4618      	mov	r0, r3
 8000214:	f000 fa02 	bl	800061c <MCAL_EXTI_GPIO_Init>
 8000218:	4b08      	ldr	r3, [pc, #32]	; (800023c <main+0x4c>)
 800021a:	2201      	movs	r2, #1
 800021c:	601a      	str	r2, [r3, #0]
 800021e:	2001      	movs	r0, #1
 8000220:	f7ff ffa6 	bl	8000170 <SWITCH_CPU_AccessLevel>
 8000224:	4b05      	ldr	r3, [pc, #20]	; (800023c <main+0x4c>)
 8000226:	681b      	ldr	r3, [r3, #0]
 8000228:	2b00      	cmp	r3, #0
 800022a:	d0fb      	beq.n	8000224 <main+0x34>
 800022c:	4b03      	ldr	r3, [pc, #12]	; (800023c <main+0x4c>)
 800022e:	2200      	movs	r2, #0
 8000230:	601a      	str	r2, [r3, #0]
 8000232:	e7f7      	b.n	8000224 <main+0x34>
 8000234:	08000d54 	stmdaeq	r0, {r2, r4, r6, r8, sl, fp}
 8000238:	080001d9 	stmdaeq	r0, {r0, r3, r4, r6, r7, r8}
 800023c:	2000001c 	andcs	r0, r0, ip, lsl r0

08000240 <Reset_Handler>:
 8000240:	480d      	ldr	r0, [pc, #52]	; (8000278 <LoopForever+0x2>)
 8000242:	4685      	mov	sp, r0
 8000244:	f3af 8000 	nop.w
 8000248:	480c      	ldr	r0, [pc, #48]	; (800027c <LoopForever+0x6>)
 800024a:	490d      	ldr	r1, [pc, #52]	; (8000280 <LoopForever+0xa>)
 800024c:	4a0d      	ldr	r2, [pc, #52]	; (8000284 <LoopForever+0xe>)
 800024e:	2300      	movs	r3, #0
 8000250:	e002      	b.n	8000258 <LoopCopyDataInit>

08000252 <CopyDataInit>:
 8000252:	58d4      	ldr	r4, [r2, r3]
 8000254:	50c4      	str	r4, [r0, r3]
 8000256:	3304      	adds	r3, #4

08000258 <LoopCopyDataInit>:
 8000258:	18c4      	adds	r4, r0, r3
 800025a:	428c      	cmp	r4, r1
 800025c:	d3f9      	bcc.n	8000252 <CopyDataInit>
 800025e:	4a0a      	ldr	r2, [pc, #40]	; (8000288 <LoopForever+0x12>)
 8000260:	4c0a      	ldr	r4, [pc, #40]	; (800028c <LoopForever+0x16>)
 8000262:	2300      	movs	r3, #0
 8000264:	e001      	b.n	800026a <LoopFillZerobss>

08000266 <FillZerobss>:
 8000266:	6013      	str	r3, [r2, #0]
 8000268:	3204      	adds	r2, #4

0800026a <LoopFillZerobss>:
 800026a:	42a2      	cmp	r2, r4
 800026c:	d3fb      	bcc.n	8000266 <FillZerobss>
 800026e:	f000 fd41 	bl	8000cf4 <__libc_init_array>
 8000272:	f7ff ffbd 	bl	80001f0 <main>

08000276 <LoopForever>:
 8000276:	e7fe      	b.n	8000276 <LoopForever>
 8000278:	20002800 	andcs	r2, r0, r0, lsl #16
 800027c:	20000000 	andcs	r0, r0, r0
 8000280:	20000000 	andcs	r0, r0, r0
 8000284:	08000d68 	stmdaeq	r0, {r3, r5, r6, r8, sl, fp}
 8000288:	20000000 	andcs	r0, r0, r0
 800028c:	200000b0 	strhcs	r0, [r0], -r0	; <UNPREDICTABLE>

08000290 <ADC1_2_IRQHandler>:
 8000290:	e7fe      	b.n	8000290 <ADC1_2_IRQHandler>
	...

08000294 <Enable_NVIC>:
 8000294:	b480      	push	{r7}
 8000296:	b083      	sub	sp, #12
 8000298:	af00      	add	r7, sp, #0
 800029a:	4603      	mov	r3, r0
 800029c:	80fb      	strh	r3, [r7, #6]
 800029e:	88fb      	ldrh	r3, [r7, #6]
 80002a0:	2b0f      	cmp	r3, #15
 80002a2:	d854      	bhi.n	800034e <Enable_NVIC+0xba>
 80002a4:	a201      	add	r2, pc, #4	; (adr r2, 80002ac <Enable_NVIC+0x18>)
 80002a6:	f852 f023 	ldr.w	pc, [r2, r3, lsl #2]
 80002aa:	bf00      	nop
 80002ac:	080002ed 	stmdaeq	r0, {r0, r2, r3, r5, r6, r7, r9}
 80002b0:	080002fb 	stmdaeq	r0, {r0, r1, r3, r4, r5, r6, r7, r9}
 80002b4:	08000309 	stmdaeq	r0, {r0, r3, r8, r9}
 80002b8:	08000317 	stmdaeq	r0, {r0, r1, r2, r4, r8, r9}
 80002bc:	08000325 	stmdaeq	r0, {r0, r2, r5, r8, r9}
 80002c0:	08000333 	stmdaeq	r0, {r0, r1, r4, r5, r8, r9}
 80002c4:	08000333 	stmdaeq	r0, {r0, r1, r4, r5, r8, r9}
 80002c8:	08000333 	stmdaeq	r0, {r0, r1, r4, r5, r8, r9}
 80002cc:	08000333 	stmdaeq	r0, {r0, r1, r4, r5, r8, r9}
 80002d0:	08000333 	stmdaeq	r0, {r0, r1, r4, r5, r8, r9}
 80002d4:	08000341 	stmdaeq	r0, {r0, r6, r8, r9}
 80002d8:	08000341 	stmdaeq	r0, {r0, r6, r8, r9}
 80002dc:	08000341 	stmdaeq	r0, {r0, r6, r8, r9}
 80002e0:	08000341 	stmdaeq	r0, {r0, r6, r8, r9}
 80002e4:	08000341 	stmdaeq	r0, {r0, r6, r8, r9}
 80002e8:	08000341 	stmdaeq	r0, {r0, r6, r8, r9}
 80002ec:	4b1a      	ldr	r3, [pc, #104]	; (8000358 <Enable_NVIC+0xc4>)
 80002ee:	681b      	ldr	r3, [r3, #0]
 80002f0:	4a19      	ldr	r2, [pc, #100]	; (8000358 <Enable_NVIC+0xc4>)
 80002f2:	f043 0340 	orr.w	r3, r3, #64	; 0x40
 80002f6:	6013      	str	r3, [r2, #0]
 80002f8:	e029      	b.n	800034e <Enable_NVIC+0xba>
 80002fa:	4b17      	ldr	r3, [pc, #92]	; (8000358 <Enable_NVIC+0xc4>)
 80002fc:	681b      	ldr	r3, [r3, #0]
 80002fe:	4a16      	ldr	r2, [pc, #88]	; (8000358 <Enable_NVIC+0xc4>)
 8000300:	f043 0380 	orr.w	r3, r3, #128	; 0x80
 8000304:	6013      	str	r3, [r2, #0]
 8000306:	e022      	b.n	800034e <Enable_NVIC+0xba>
 8000308:	4b13      	ldr	r3, [pc, #76]	; (8000358 <Enable_NVIC+0xc4>)
 800030a:	681b      	ldr	r3, [r3, #0]
 800030c:	4a12      	ldr	r2, [pc, #72]	; (8000358 <Enable_NVIC+0xc4>)
 800030e:	f443 7380 	orr.w	r3, r3, #256	; 0x100
 8000312:	6013      	str	r3, [r2, #0]
 8000314:	e01b      	b.n	800034e <Enable_NVIC+0xba>
 8000316:	4b10      	ldr	r3, [pc, #64]	; (8000358 <Enable_NVIC+0xc4>)
 8000318:	681b      	ldr	r3, [r3, #0]
 800031a:	4a0f      	ldr	r2, [pc, #60]	; (8000358 <Enable_NVIC+0xc4>)
 800031c:	f443 7300 	orr.w	r3, r3, #512	; 0x200
 8000320:	6013      	str	r3, [r2, #0]
 8000322:	e014      	b.n	800034e <Enable_NVIC+0xba>
 8000324:	4b0c      	ldr	r3, [pc, #48]	; (8000358 <Enable_NVIC+0xc4>)
 8000326:	681b      	ldr	r3, [r3, #0]
 8000328:	4a0b      	ldr	r2, [pc, #44]	; (8000358 <Enable_NVIC+0xc4>)
 800032a:	f443 6380 	orr.w	r3, r3, #1024	; 0x400
 800032e:	6013      	str	r3, [r2, #0]
 8000330:	e00d      	b.n	800034e <Enable_NVIC+0xba>
 8000332:	4b09      	ldr	r3, [pc, #36]	; (8000358 <Enable_NVIC+0xc4>)
 8000334:	681b      	ldr	r3, [r3, #0]
 8000336:	4a08      	ldr	r2, [pc, #32]	; (8000358 <Enable_NVIC+0xc4>)
 8000338:	f443 0300 	orr.w	r3, r3, #8388608	; 0x800000
 800033c:	6013      	str	r3, [r2, #0]
 800033e:	e006      	b.n	800034e <Enable_NVIC+0xba>
 8000340:	4b06      	ldr	r3, [pc, #24]	; (800035c <Enable_NVIC+0xc8>)
 8000342:	681b      	ldr	r3, [r3, #0]
 8000344:	4a05      	ldr	r2, [pc, #20]	; (800035c <Enable_NVIC+0xc8>)
 8000346:	f443 7380 	orr.w	r3, r3, #256	; 0x100
 800034a:	6013      	str	r3, [r2, #0]
 800034c:	bf00      	nop
 800034e:	bf00      	nop
 8000350:	370c      	adds	r7, #12
 8000352:	46bd      	mov	sp, r7
 8000354:	bc80      	pop	{r7}
 8000356:	4770      	bx	lr
 8000358:	e000e100 	and	lr, r0, r0, lsl #2
 800035c:	e000e104 	and	lr, r0, r4, lsl #2

08000360 <Disable_NVIC>:
 8000360:	b480      	push	{r7}
 8000362:	b083      	sub	sp, #12
 8000364:	af00      	add	r7, sp, #0
 8000366:	4603      	mov	r3, r0
 8000368:	80fb      	strh	r3, [r7, #6]
 800036a:	88fb      	ldrh	r3, [r7, #6]
 800036c:	2b0f      	cmp	r3, #15
 800036e:	d854      	bhi.n	800041a <Disable_NVIC+0xba>
 8000370:	a201      	add	r2, pc, #4	; (adr r2, 8000378 <Disable_NVIC+0x18>)
 8000372:	f852 f023 	ldr.w	pc, [r2, r3, lsl #2]
 8000376:	bf00      	nop
 8000378:	080003b9 	stmdaeq	r0, {r0, r3, r4, r5, r7, r8, r9}
 800037c:	080003c7 	stmdaeq	r0, {r0, r1, r2, r6, r7, r8, r9}
 8000380:	080003d5 	stmdaeq	r0, {r0, r2, r4, r6, r7, r8, r9}
 8000384:	080003e3 	stmdaeq	r0, {r0, r1, r5, r6, r7, r8, r9}
 8000388:	080003f1 	stmdaeq	r0, {r0, r4, r5, r6, r7, r8, r9}
 800038c:	080003ff 	stmdaeq	r0, {r0, r1, r2, r3, r4, r5, r6, r7, r8, r9}
 8000390:	080003ff 	stmdaeq	r0, {r0, r1, r2, r3, r4, r5, r6, r7, r8, r9}
 8000394:	080003ff 	stmdaeq	r0, {r0, r1, r2, r3, r4, r5, r6, r7, r8, r9}
 8000398:	080003ff 	stmdaeq	r0, {r0, r1, r2, r3, r4, r5, r6, r7, r8, r9}
 800039c:	080003ff 	stmdaeq	r0, {r0, r1, r2, r3, r4, r5, r6, r7, r8, r9}
 80003a0:	0800040d 	stmdaeq	r0, {r0, r2, r3, sl}
 80003a4:	0800040d 	stmdaeq	r0, {r0, r2, r3, sl}
 80003a8:	0800040d 	stmdaeq	r0, {r0, r2, r3, sl}
 80003ac:	0800040d 	stmdaeq	r0, {r0, r2, r3, sl}
 80003b0:	0800040d 	stmdaeq	r0, {r0, r2, r3, sl}
 80003b4:	0800040d 	stmdaeq	r0, {r0, r2, r3, sl}
 80003b8:	4b1a      	ldr	r3, [pc, #104]	; (8000424 <Disable_NVIC+0xc4>)
 80003ba:	681b      	ldr	r3, [r3, #0]
 80003bc:	4a19      	ldr	r2, [pc, #100]	; (8000424 <Disable_NVIC+0xc4>)
 80003be:	f043 0340 	orr.w	r3, r3, #64	; 0x40
 80003c2:	6013      	str	r3, [r2, #0]
 80003c4:	e029      	b.n	800041a <Disable_NVIC+0xba>
 80003c6:	4b17      	ldr	r3, [pc, #92]	; (8000424 <Disable_NVIC+0xc4>)
 80003c8:	681b      	ldr	r3, [r3, #0]
 80003ca:	4a16      	ldr	r2, [pc, #88]	; (8000424 <Disable_NVIC+0xc4>)
 80003cc:	f043 0380 	orr.w	r3, r3, #128	; 0x80
 80003d0:	6013      	str	r3, [r2, #0]
 80003d2:	e022      	b.n	800041a <Disable_NVIC+0xba>
 80003d4:	4b13      	ldr	r3, [pc, #76]	; (8000424 <Disable_NVIC+0xc4>)
 80003d6:	681b      	ldr	r3, [r3, #0]
 80003d8:	4a12      	ldr	r2, [pc, #72]	; (8000424 <Disable_NVIC+0xc4>)
 80003da:	f443 7380 	orr.w	r3, r3, #256	; 0x100
 80003de:	6013      	str	r3, [r2, #0]
 80003e0:	e01b      	b.n	800041a <Disable_NVIC+0xba>
 80003e2:	4b10      	ldr	r3, [pc, #64]	; (8000424 <Disable_NVIC+0xc4>)
 80003e4:	681b      	ldr	r3, [r3, #0]
 80003e6:	4a0f      	ldr	r2, [pc, #60]	; (8000424 <Disable_NVIC+0xc4>)
 80003e8:	f443 7300 	orr.w	r3, r3, #512	; 0x200
 80003ec:	6013      	str	r3, [r2, #0]
 80003ee:	e014      	b.n	800041a <Disable_NVIC+0xba>
 80003f0:	4b0c      	ldr	r3, [pc, #48]	; (8000424 <Disable_NVIC+0xc4>)
 80003f2:	681b      	ldr	r3, [r3, #0]
 80003f4:	4a0b      	ldr	r2, [pc, #44]	; (8000424 <Disable_NVIC+0xc4>)
 80003f6:	f443 6380 	orr.w	r3, r3, #1024	; 0x400
 80003fa:	6013      	str	r3, [r2, #0]
 80003fc:	e00d      	b.n	800041a <Disable_NVIC+0xba>
 80003fe:	4b09      	ldr	r3, [pc, #36]	; (8000424 <Disable_NVIC+0xc4>)
 8000400:	681b      	ldr	r3, [r3, #0]
 8000402:	4a08      	ldr	r2, [pc, #32]	; (8000424 <Disable_NVIC+0xc4>)
 8000404:	f443 0300 	orr.w	r3, r3, #8388608	; 0x800000
 8000408:	6013      	str	r3, [r2, #0]
 800040a:	e006      	b.n	800041a <Disable_NVIC+0xba>
 800040c:	4b06      	ldr	r3, [pc, #24]	; (8000428 <Disable_NVIC+0xc8>)
 800040e:	681b      	ldr	r3, [r3, #0]
 8000410:	4a05      	ldr	r2, [pc, #20]	; (8000428 <Disable_NVIC+0xc8>)
 8000412:	f443 7380 	orr.w	r3, r3, #256	; 0x100
 8000416:	6013      	str	r3, [r2, #0]
 8000418:	bf00      	nop
 800041a:	bf00      	nop
 800041c:	370c      	adds	r7, #12
 800041e:	46bd      	mov	sp, r7
 8000420:	bc80      	pop	{r7}
 8000422:	4770      	bx	lr
 8000424:	e000e180 	and	lr, r0, r0, lsl #3
 8000428:	e000e184 	and	lr, r0, r4, lsl #3

0800042c <Update_EXTI>:
 800042c:	b580      	push	{r7, lr}
 800042e:	b084      	sub	sp, #16
 8000430:	af00      	add	r7, sp, #0
 8000432:	6078      	str	r0, [r7, #4]
 8000434:	687b      	ldr	r3, [r7, #4]
 8000436:	891b      	ldrh	r3, [r3, #8]
 8000438:	813b      	strh	r3, [r7, #8]
 800043a:	2301      	movs	r3, #1
 800043c:	72bb      	strb	r3, [r7, #10]
 800043e:	687b      	ldr	r3, [r7, #4]
 8000440:	685b      	ldr	r3, [r3, #4]
 8000442:	f107 0208 	add.w	r2, r7, #8
 8000446:	4611      	mov	r1, r2
 8000448:	4618      	mov	r0, r3
 800044a:	f000 fa66 	bl	800091a <MCAL_GPIO_Init>
 800044e:	687b      	ldr	r3, [r7, #4]
 8000450:	881b      	ldrh	r3, [r3, #0]
 8000452:	089b      	lsrs	r3, r3, #2
 8000454:	b29b      	uxth	r3, r3
 8000456:	73fb      	strb	r3, [r7, #15]
 8000458:	687b      	ldr	r3, [r7, #4]
 800045a:	881b      	ldrh	r3, [r3, #0]
 800045c:	b2db      	uxtb	r3, r3
 800045e:	f003 0303 	and.w	r3, r3, #3
 8000462:	b2db      	uxtb	r3, r3
 8000464:	009b      	lsls	r3, r3, #2
 8000466:	73bb      	strb	r3, [r7, #14]
 8000468:	4a64      	ldr	r2, [pc, #400]	; (80005fc <Update_EXTI+0x1d0>)
 800046a:	7bfb      	ldrb	r3, [r7, #15]
 800046c:	3302      	adds	r3, #2
 800046e:	f852 2023 	ldr.w	r2, [r2, r3, lsl #2]
 8000472:	7bbb      	ldrb	r3, [r7, #14]
 8000474:	210f      	movs	r1, #15
 8000476:	fa01 f303 	lsl.w	r3, r1, r3
 800047a:	43db      	mvns	r3, r3
 800047c:	4618      	mov	r0, r3
 800047e:	495f      	ldr	r1, [pc, #380]	; (80005fc <Update_EXTI+0x1d0>)
 8000480:	7bfb      	ldrb	r3, [r7, #15]
 8000482:	4002      	ands	r2, r0
 8000484:	3302      	adds	r3, #2
 8000486:	f841 2023 	str.w	r2, [r1, r3, lsl #2]
 800048a:	4a5c      	ldr	r2, [pc, #368]	; (80005fc <Update_EXTI+0x1d0>)
 800048c:	7bfb      	ldrb	r3, [r7, #15]
 800048e:	3302      	adds	r3, #2
 8000490:	f852 2023 	ldr.w	r2, [r2, r3, lsl #2]
 8000494:	687b      	ldr	r3, [r7, #4]
 8000496:	685b      	ldr	r3, [r3, #4]
 8000498:	4959      	ldr	r1, [pc, #356]	; (8000600 <Update_EXTI+0x1d4>)
 800049a:	428b      	cmp	r3, r1
 800049c:	d016      	beq.n	80004cc <Update_EXTI+0xa0>
 800049e:	687b      	ldr	r3, [r7, #4]
 80004a0:	685b      	ldr	r3, [r3, #4]
 80004a2:	4958      	ldr	r1, [pc, #352]	; (8000604 <Update_EXTI+0x1d8>)
 80004a4:	428b      	cmp	r3, r1
 80004a6:	d00f      	beq.n	80004c8 <Update_EXTI+0x9c>
 80004a8:	687b      	ldr	r3, [r7, #4]
 80004aa:	685b      	ldr	r3, [r3, #4]
 80004ac:	4956      	ldr	r1, [pc, #344]	; (8000608 <Update_EXTI+0x1dc>)
 80004ae:	428b      	cmp	r3, r1
 80004b0:	d008      	beq.n	80004c4 <Update_EXTI+0x98>
 80004b2:	687b      	ldr	r3, [r7, #4]
 80004b4:	685b      	ldr	r3, [r3, #4]
 80004b6:	4955      	ldr	r1, [pc, #340]	; (800060c <Update_EXTI+0x1e0>)
 80004b8:	428b      	cmp	r3, r1
 80004ba:	d101      	bne.n	80004c0 <Update_EXTI+0x94>
 80004bc:	2303      	movs	r3, #3
 80004be:	e006      	b.n	80004ce <Update_EXTI+0xa2>
 80004c0:	2300      	movs	r3, #0
 80004c2:	e004      	b.n	80004ce <Update_EXTI+0xa2>
 80004c4:	2302      	movs	r3, #2
 80004c6:	e002      	b.n	80004ce <Update_EXTI+0xa2>
 80004c8:	2301      	movs	r3, #1
 80004ca:	e000      	b.n	80004ce <Update_EXTI+0xa2>
 80004cc:	2300      	movs	r3, #0
 80004ce:	7bb9      	ldrb	r1, [r7, #14]
 80004d0:	408b      	lsls	r3, r1
 80004d2:	4618      	mov	r0, r3
 80004d4:	4949      	ldr	r1, [pc, #292]	; (80005fc <Update_EXTI+0x1d0>)
 80004d6:	7bfb      	ldrb	r3, [r7, #15]
 80004d8:	4302      	orrs	r2, r0
 80004da:	3302      	adds	r3, #2
 80004dc:	f841 2023 	str.w	r2, [r1, r3, lsl #2]
 80004e0:	4b4b      	ldr	r3, [pc, #300]	; (8000610 <Update_EXTI+0x1e4>)
 80004e2:	689b      	ldr	r3, [r3, #8]
 80004e4:	687a      	ldr	r2, [r7, #4]
 80004e6:	8812      	ldrh	r2, [r2, #0]
 80004e8:	4611      	mov	r1, r2
 80004ea:	2201      	movs	r2, #1
 80004ec:	408a      	lsls	r2, r1
 80004ee:	43d2      	mvns	r2, r2
 80004f0:	4611      	mov	r1, r2
 80004f2:	4a47      	ldr	r2, [pc, #284]	; (8000610 <Update_EXTI+0x1e4>)
 80004f4:	400b      	ands	r3, r1
 80004f6:	6093      	str	r3, [r2, #8]
 80004f8:	4b45      	ldr	r3, [pc, #276]	; (8000610 <Update_EXTI+0x1e4>)
 80004fa:	68db      	ldr	r3, [r3, #12]
 80004fc:	687a      	ldr	r2, [r7, #4]
 80004fe:	8812      	ldrh	r2, [r2, #0]
 8000500:	4611      	mov	r1, r2
 8000502:	2201      	movs	r2, #1
 8000504:	408a      	lsls	r2, r1
 8000506:	43d2      	mvns	r2, r2
 8000508:	4611      	mov	r1, r2
 800050a:	4a41      	ldr	r2, [pc, #260]	; (8000610 <Update_EXTI+0x1e4>)
 800050c:	400b      	ands	r3, r1
 800050e:	60d3      	str	r3, [r2, #12]
 8000510:	687b      	ldr	r3, [r7, #4]
 8000512:	7b1b      	ldrb	r3, [r3, #12]
 8000514:	2b00      	cmp	r3, #0
 8000516:	d10b      	bne.n	8000530 <Update_EXTI+0x104>
 8000518:	4b3d      	ldr	r3, [pc, #244]	; (8000610 <Update_EXTI+0x1e4>)
 800051a:	689b      	ldr	r3, [r3, #8]
 800051c:	687a      	ldr	r2, [r7, #4]
 800051e:	8812      	ldrh	r2, [r2, #0]
 8000520:	4611      	mov	r1, r2
 8000522:	2201      	movs	r2, #1
 8000524:	408a      	lsls	r2, r1
 8000526:	4611      	mov	r1, r2
 8000528:	4a39      	ldr	r2, [pc, #228]	; (8000610 <Update_EXTI+0x1e4>)
 800052a:	430b      	orrs	r3, r1
 800052c:	6093      	str	r3, [r2, #8]
 800052e:	e029      	b.n	8000584 <Update_EXTI+0x158>
 8000530:	687b      	ldr	r3, [r7, #4]
 8000532:	7b1b      	ldrb	r3, [r3, #12]
 8000534:	2b01      	cmp	r3, #1
 8000536:	d10b      	bne.n	8000550 <Update_EXTI+0x124>
 8000538:	4b35      	ldr	r3, [pc, #212]	; (8000610 <Update_EXTI+0x1e4>)
 800053a:	68db      	ldr	r3, [r3, #12]
 800053c:	687a      	ldr	r2, [r7, #4]
 800053e:	8812      	ldrh	r2, [r2, #0]
 8000540:	4611      	mov	r1, r2
 8000542:	2201      	movs	r2, #1
 8000544:	408a      	lsls	r2, r1
 8000546:	4611      	mov	r1, r2
 8000548:	4a31      	ldr	r2, [pc, #196]	; (8000610 <Update_EXTI+0x1e4>)
 800054a:	430b      	orrs	r3, r1
 800054c:	60d3      	str	r3, [r2, #12]
 800054e:	e019      	b.n	8000584 <Update_EXTI+0x158>
 8000550:	687b      	ldr	r3, [r7, #4]
 8000552:	7b1b      	ldrb	r3, [r3, #12]
 8000554:	2b02      	cmp	r3, #2
 8000556:	d115      	bne.n	8000584 <Update_EXTI+0x158>
 8000558:	4b2d      	ldr	r3, [pc, #180]	; (8000610 <Update_EXTI+0x1e4>)
 800055a:	689b      	ldr	r3, [r3, #8]
 800055c:	687a      	ldr	r2, [r7, #4]
 800055e:	8812      	ldrh	r2, [r2, #0]
 8000560:	4611      	mov	r1, r2
 8000562:	2201      	movs	r2, #1
 8000564:	408a      	lsls	r2, r1
 8000566:	4611      	mov	r1, r2
 8000568:	4a29      	ldr	r2, [pc, #164]	; (8000610 <Update_EXTI+0x1e4>)
 800056a:	430b      	orrs	r3, r1
 800056c:	6093      	str	r3, [r2, #8]
 800056e:	4b28      	ldr	r3, [pc, #160]	; (8000610 <Update_EXTI+0x1e4>)
 8000570:	68db      	ldr	r3, [r3, #12]
 8000572:	687a      	ldr	r2, [r7, #4]
 8000574:	8812      	ldrh	r2, [r2, #0]
 8000576:	4611      	mov	r1, r2
 8000578:	2201      	movs	r2, #1
 800057a:	408a      	lsls	r2, r1
 800057c:	4611      	mov	r1, r2
 800057e:	4a24      	ldr	r2, [pc, #144]	; (8000610 <Update_EXTI+0x1e4>)
 8000580:	430b      	orrs	r3, r1
 8000582:	60d3      	str	r3, [r2, #12]
 8000584:	687b      	ldr	r3, [r7, #4]
 8000586:	881b      	ldrh	r3, [r3, #0]
 8000588:	4619      	mov	r1, r3
 800058a:	687b      	ldr	r3, [r7, #4]
 800058c:	691b      	ldr	r3, [r3, #16]
 800058e:	4a21      	ldr	r2, [pc, #132]	; (8000614 <Update_EXTI+0x1e8>)
 8000590:	f842 3021 	str.w	r3, [r2, r1, lsl #2]
 8000594:	687b      	ldr	r3, [r7, #4]
 8000596:	7b5b      	ldrb	r3, [r3, #13]
 8000598:	2b00      	cmp	r3, #0
 800059a:	d116      	bne.n	80005ca <Update_EXTI+0x19e>
 800059c:	4b1c      	ldr	r3, [pc, #112]	; (8000610 <Update_EXTI+0x1e4>)
 800059e:	681b      	ldr	r3, [r3, #0]
 80005a0:	687a      	ldr	r2, [r7, #4]
 80005a2:	8812      	ldrh	r2, [r2, #0]
 80005a4:	4611      	mov	r1, r2
 80005a6:	2201      	movs	r2, #1
 80005a8:	408a      	lsls	r2, r1
 80005aa:	4611      	mov	r1, r2
 80005ac:	4a18      	ldr	r2, [pc, #96]	; (8000610 <Update_EXTI+0x1e4>)
 80005ae:	430b      	orrs	r3, r1
 80005b0:	6013      	str	r3, [r2, #0]
 80005b2:	687b      	ldr	r3, [r7, #4]
 80005b4:	881b      	ldrh	r3, [r3, #0]
 80005b6:	4618      	mov	r0, r3
 80005b8:	f7ff fe6c 	bl	8000294 <Enable_NVIC>
 80005bc:	4b16      	ldr	r3, [pc, #88]	; (8000618 <Update_EXTI+0x1ec>)
 80005be:	681b      	ldr	r3, [r3, #0]
 80005c0:	4a15      	ldr	r2, [pc, #84]	; (8000618 <Update_EXTI+0x1ec>)
 80005c2:	f443 0300 	orr.w	r3, r3, #8388608	; 0x800000
 80005c6:	6013      	str	r3, [r2, #0]
 80005c8:	e014      	b.n	80005f4 <Update_EXTI+0x1c8>
 80005ca:	687b      	ldr	r3, [r7, #4]
 80005cc:	7b5b      	ldrb	r3, [r3, #13]
 80005ce:	2b01      	cmp	r3, #1
 80005d0:	d110      	bne.n	80005f4 <Update_EXTI+0x1c8>
 80005d2:	4b0f      	ldr	r3, [pc, #60]	; (8000610 <Update_EXTI+0x1e4>)
 80005d4:	681b      	ldr	r3, [r3, #0]
 80005d6:	687a      	ldr	r2, [r7, #4]
 80005d8:	8812      	ldrh	r2, [r2, #0]
 80005da:	4611      	mov	r1, r2
 80005dc:	2201      	movs	r2, #1
 80005de:	408a      	lsls	r2, r1
 80005e0:	43d2      	mvns	r2, r2
 80005e2:	4611      	mov	r1, r2
 80005e4:	4a0a      	ldr	r2, [pc, #40]	; (8000610 <Update_EXTI+0x1e4>)
 80005e6:	400b      	ands	r3, r1
 80005e8:	6013      	str	r3, [r2, #0]
 80005ea:	687b      	ldr	r3, [r7, #4]
 80005ec:	881b      	ldrh	r3, [r3, #0]
 80005ee:	4618      	mov	r0, r3
 80005f0:	f7ff feb6 	bl	8000360 <Disable_NVIC>
 80005f4:	bf00      	nop
 80005f6:	3710      	adds	r7, #16
 80005f8:	46bd      	mov	sp, r7
 80005fa:	bd80      	pop	{r7, pc}
 80005fc:	40010000 	andmi	r0, r1, r0
 8000600:	40010800 	andmi	r0, r1, r0, lsl #16
 8000604:	40010c00 	andmi	r0, r1, r0, lsl #24
 8000608:	40011000 	andmi	r1, r1, r0
 800060c:	40011400 	andmi	r1, r1, r0, lsl #8
 8000610:	40010400 	andmi	r0, r1, r0, lsl #8
 8000614:	20000020 	andcs	r0, r0, r0, lsr #32
 8000618:	e000e100 	and	lr, r0, r0, lsl #2

0800061c <MCAL_EXTI_GPIO_Init>:
 800061c:	b580      	push	{r7, lr}
 800061e:	b082      	sub	sp, #8
 8000620:	af00      	add	r7, sp, #0
 8000622:	6078      	str	r0, [r7, #4]
 8000624:	6878      	ldr	r0, [r7, #4]
 8000626:	f7ff ff01 	bl	800042c <Update_EXTI>
 800062a:	bf00      	nop
 800062c:	3708      	adds	r7, #8
 800062e:	46bd      	mov	sp, r7
 8000630:	bd80      	pop	{r7, pc}
	...

08000634 <EXTI0_IRQHandler>:
 8000634:	b580      	push	{r7, lr}
 8000636:	af00      	add	r7, sp, #0
 8000638:	4b05      	ldr	r3, [pc, #20]	; (8000650 <EXTI0_IRQHandler+0x1c>)
 800063a:	695b      	ldr	r3, [r3, #20]
 800063c:	4a04      	ldr	r2, [pc, #16]	; (8000650 <EXTI0_IRQHandler+0x1c>)
 800063e:	f043 0301 	orr.w	r3, r3, #1
 8000642:	6153      	str	r3, [r2, #20]
 8000644:	4b03      	ldr	r3, [pc, #12]	; (8000654 <EXTI0_IRQHandler+0x20>)
 8000646:	681b      	ldr	r3, [r3, #0]
 8000648:	4798      	blx	r3
 800064a:	bf00      	nop
 800064c:	bd80      	pop	{r7, pc}
 800064e:	bf00      	nop
 8000650:	40010400 	andmi	r0, r1, r0, lsl #8
 8000654:	20000020 	andcs	r0, r0, r0, lsr #32

08000658 <EXTI1_IRQHandler>:
 8000658:	b580      	push	{r7, lr}
 800065a:	af00      	add	r7, sp, #0
 800065c:	4b05      	ldr	r3, [pc, #20]	; (8000674 <EXTI1_IRQHandler+0x1c>)
 800065e:	695b      	ldr	r3, [r3, #20]
 8000660:	4a04      	ldr	r2, [pc, #16]	; (8000674 <EXTI1_IRQHandler+0x1c>)
 8000662:	f043 0302 	orr.w	r3, r3, #2
 8000666:	6153      	str	r3, [r2, #20]
 8000668:	4b03      	ldr	r3, [pc, #12]	; (8000678 <EXTI1_IRQHandler+0x20>)
 800066a:	685b      	ldr	r3, [r3, #4]
 800066c:	4798      	blx	r3
 800066e:	bf00      	nop
 8000670:	bd80      	pop	{r7, pc}
 8000672:	bf00      	nop
 8000674:	40010400 	andmi	r0, r1, r0, lsl #8
 8000678:	20000020 	andcs	r0, r0, r0, lsr #32

0800067c <EXTI2_IRQHandler>:
 800067c:	b580      	push	{r7, lr}
 800067e:	af00      	add	r7, sp, #0
 8000680:	4b05      	ldr	r3, [pc, #20]	; (8000698 <EXTI2_IRQHandler+0x1c>)
 8000682:	695b      	ldr	r3, [r3, #20]
 8000684:	4a04      	ldr	r2, [pc, #16]	; (8000698 <EXTI2_IRQHandler+0x1c>)
 8000686:	f043 0304 	orr.w	r3, r3, #4
 800068a:	6153      	str	r3, [r2, #20]
 800068c:	4b03      	ldr	r3, [pc, #12]	; (800069c <EXTI2_IRQHandler+0x20>)
 800068e:	689b      	ldr	r3, [r3, #8]
 8000690:	4798      	blx	r3
 8000692:	bf00      	nop
 8000694:	bd80      	pop	{r7, pc}
 8000696:	bf00      	nop
 8000698:	40010400 	andmi	r0, r1, r0, lsl #8
 800069c:	20000020 	andcs	r0, r0, r0, lsr #32

080006a0 <EXTI3_IRQHandler>:
 80006a0:	b580      	push	{r7, lr}
 80006a2:	af00      	add	r7, sp, #0
 80006a4:	4b05      	ldr	r3, [pc, #20]	; (80006bc <EXTI3_IRQHandler+0x1c>)
 80006a6:	695b      	ldr	r3, [r3, #20]
 80006a8:	4a04      	ldr	r2, [pc, #16]	; (80006bc <EXTI3_IRQHandler+0x1c>)
 80006aa:	f043 0308 	orr.w	r3, r3, #8
 80006ae:	6153      	str	r3, [r2, #20]
 80006b0:	4b03      	ldr	r3, [pc, #12]	; (80006c0 <EXTI3_IRQHandler+0x20>)
 80006b2:	68db      	ldr	r3, [r3, #12]
 80006b4:	4798      	blx	r3
 80006b6:	bf00      	nop
 80006b8:	bd80      	pop	{r7, pc}
 80006ba:	bf00      	nop
 80006bc:	40010400 	andmi	r0, r1, r0, lsl #8
 80006c0:	20000020 	andcs	r0, r0, r0, lsr #32

080006c4 <EXTI4_IRQHandler>:
 80006c4:	b580      	push	{r7, lr}
 80006c6:	af00      	add	r7, sp, #0
 80006c8:	4b05      	ldr	r3, [pc, #20]	; (80006e0 <EXTI4_IRQHandler+0x1c>)
 80006ca:	695b      	ldr	r3, [r3, #20]
 80006cc:	4a04      	ldr	r2, [pc, #16]	; (80006e0 <EXTI4_IRQHandler+0x1c>)
 80006ce:	f043 0310 	orr.w	r3, r3, #16
 80006d2:	6153      	str	r3, [r2, #20]
 80006d4:	4b03      	ldr	r3, [pc, #12]	; (80006e4 <EXTI4_IRQHandler+0x20>)
 80006d6:	691b      	ldr	r3, [r3, #16]
 80006d8:	4798      	blx	r3
 80006da:	bf00      	nop
 80006dc:	bd80      	pop	{r7, pc}
 80006de:	bf00      	nop
 80006e0:	40010400 	andmi	r0, r1, r0, lsl #8
 80006e4:	20000020 	andcs	r0, r0, r0, lsr #32

080006e8 <EXTI9_5_IRQHandler>:
 80006e8:	b580      	push	{r7, lr}
 80006ea:	af00      	add	r7, sp, #0
 80006ec:	4b26      	ldr	r3, [pc, #152]	; (8000788 <EXTI9_5_IRQHandler+0xa0>)
 80006ee:	695b      	ldr	r3, [r3, #20]
 80006f0:	f003 0320 	and.w	r3, r3, #32
 80006f4:	2b00      	cmp	r3, #0
 80006f6:	d008      	beq.n	800070a <EXTI9_5_IRQHandler+0x22>
 80006f8:	4b23      	ldr	r3, [pc, #140]	; (8000788 <EXTI9_5_IRQHandler+0xa0>)
 80006fa:	695b      	ldr	r3, [r3, #20]
 80006fc:	4a22      	ldr	r2, [pc, #136]	; (8000788 <EXTI9_5_IRQHandler+0xa0>)
 80006fe:	f043 0320 	orr.w	r3, r3, #32
 8000702:	6153      	str	r3, [r2, #20]
 8000704:	4b21      	ldr	r3, [pc, #132]	; (800078c <EXTI9_5_IRQHandler+0xa4>)
 8000706:	695b      	ldr	r3, [r3, #20]
 8000708:	4798      	blx	r3
 800070a:	4b1f      	ldr	r3, [pc, #124]	; (8000788 <EXTI9_5_IRQHandler+0xa0>)
 800070c:	695b      	ldr	r3, [r3, #20]
 800070e:	f003 0340 	and.w	r3, r3, #64	; 0x40
 8000712:	2b00      	cmp	r3, #0
 8000714:	d008      	beq.n	8000728 <EXTI9_5_IRQHandler+0x40>
 8000716:	4b1c      	ldr	r3, [pc, #112]	; (8000788 <EXTI9_5_IRQHandler+0xa0>)
 8000718:	695b      	ldr	r3, [r3, #20]
 800071a:	4a1b      	ldr	r2, [pc, #108]	; (8000788 <EXTI9_5_IRQHandler+0xa0>)
 800071c:	f043 0340 	orr.w	r3, r3, #64	; 0x40
 8000720:	6153      	str	r3, [r2, #20]
 8000722:	4b1a      	ldr	r3, [pc, #104]	; (800078c <EXTI9_5_IRQHandler+0xa4>)
 8000724:	699b      	ldr	r3, [r3, #24]
 8000726:	4798      	blx	r3
 8000728:	4b17      	ldr	r3, [pc, #92]	; (8000788 <EXTI9_5_IRQHandler+0xa0>)
 800072a:	695b      	ldr	r3, [r3, #20]
 800072c:	f003 0380 	and.w	r3, r3, #128	; 0x80
 8000730:	2b00      	cmp	r3, #0
 8000732:	d008      	beq.n	8000746 <EXTI9_5_IRQHandler+0x5e>
 8000734:	4b14      	ldr	r3, [pc, #80]	; (8000788 <EXTI9_5_IRQHandler+0xa0>)
 8000736:	695b      	ldr	r3, [r3, #20]
 8000738:	4a13      	ldr	r2, [pc, #76]	; (8000788 <EXTI9_5_IRQHandler+0xa0>)
 800073a:	f043 0380 	orr.w	r3, r3, #128	; 0x80
 800073e:	6153      	str	r3, [r2, #20]
 8000740:	4b12      	ldr	r3, [pc, #72]	; (800078c <EXTI9_5_IRQHandler+0xa4>)
 8000742:	69db      	ldr	r3, [r3, #28]
 8000744:	4798      	blx	r3
 8000746:	4b10      	ldr	r3, [pc, #64]	; (8000788 <EXTI9_5_IRQHandler+0xa0>)
 8000748:	695b      	ldr	r3, [r3, #20]
 800074a:	f403 7380 	and.w	r3, r3, #256	; 0x100
 800074e:	2b00      	cmp	r3, #0
 8000750:	d008      	beq.n	8000764 <EXTI9_5_IRQHandler+0x7c>
 8000752:	4b0d      	ldr	r3, [pc, #52]	; (8000788 <EXTI9_5_IRQHandler+0xa0>)
 8000754:	695b      	ldr	r3, [r3, #20]
 8000756:	4a0c      	ldr	r2, [pc, #48]	; (8000788 <EXTI9_5_IRQHandler+0xa0>)
 8000758:	f443 7380 	orr.w	r3, r3, #256	; 0x100
 800075c:	6153      	str	r3, [r2, #20]
 800075e:	4b0b      	ldr	r3, [pc, #44]	; (800078c <EXTI9_5_IRQHandler+0xa4>)
 8000760:	6a1b      	ldr	r3, [r3, #32]
 8000762:	4798      	blx	r3
 8000764:	4b08      	ldr	r3, [pc, #32]	; (8000788 <EXTI9_5_IRQHandler+0xa0>)
 8000766:	695b      	ldr	r3, [r3, #20]
 8000768:	f403 7300 	and.w	r3, r3, #512	; 0x200
 800076c:	2b00      	cmp	r3, #0
 800076e:	d008      	beq.n	8000782 <EXTI9_5_IRQHandler+0x9a>
 8000770:	4b05      	ldr	r3, [pc, #20]	; (8000788 <EXTI9_5_IRQHandler+0xa0>)
 8000772:	695b      	ldr	r3, [r3, #20]
 8000774:	4a04      	ldr	r2, [pc, #16]	; (8000788 <EXTI9_5_IRQHandler+0xa0>)
 8000776:	f443 7300 	orr.w	r3, r3, #512	; 0x200
 800077a:	6153      	str	r3, [r2, #20]
 800077c:	4b03      	ldr	r3, [pc, #12]	; (800078c <EXTI9_5_IRQHandler+0xa4>)
 800077e:	6a5b      	ldr	r3, [r3, #36]	; 0x24
 8000780:	4798      	blx	r3
 8000782:	bf00      	nop
 8000784:	bd80      	pop	{r7, pc}
 8000786:	bf00      	nop
 8000788:	40010400 	andmi	r0, r1, r0, lsl #8
 800078c:	20000020 	andcs	r0, r0, r0, lsr #32

08000790 <EXTI15_10_IRQHandler>:
 8000790:	b580      	push	{r7, lr}
 8000792:	af00      	add	r7, sp, #0
 8000794:	4b2d      	ldr	r3, [pc, #180]	; (800084c <EXTI15_10_IRQHandler+0xbc>)
 8000796:	695b      	ldr	r3, [r3, #20]
 8000798:	f403 6380 	and.w	r3, r3, #1024	; 0x400
 800079c:	2b00      	cmp	r3, #0
 800079e:	d008      	beq.n	80007b2 <EXTI15_10_IRQHandler+0x22>
 80007a0:	4b2a      	ldr	r3, [pc, #168]	; (800084c <EXTI15_10_IRQHandler+0xbc>)
 80007a2:	695b      	ldr	r3, [r3, #20]
 80007a4:	4a29      	ldr	r2, [pc, #164]	; (800084c <EXTI15_10_IRQHandler+0xbc>)
 80007a6:	f443 6380 	orr.w	r3, r3, #1024	; 0x400
 80007aa:	6153      	str	r3, [r2, #20]
 80007ac:	4b28      	ldr	r3, [pc, #160]	; (8000850 <EXTI15_10_IRQHandler+0xc0>)
 80007ae:	6a9b      	ldr	r3, [r3, #40]	; 0x28
 80007b0:	4798      	blx	r3
 80007b2:	4b26      	ldr	r3, [pc, #152]	; (800084c <EXTI15_10_IRQHandler+0xbc>)
 80007b4:	695b      	ldr	r3, [r3, #20]
 80007b6:	f403 6300 	and.w	r3, r3, #2048	; 0x800
 80007ba:	2b00      	cmp	r3, #0
 80007bc:	d008      	beq.n	80007d0 <EXTI15_10_IRQHandler+0x40>
 80007be:	4b23      	ldr	r3, [pc, #140]	; (800084c <EXTI15_10_IRQHandler+0xbc>)
 80007c0:	695b      	ldr	r3, [r3, #20]
 80007c2:	4a22      	ldr	r2, [pc, #136]	; (800084c <EXTI15_10_IRQHandler+0xbc>)
 80007c4:	f443 6300 	orr.w	r3, r3, #2048	; 0x800
 80007c8:	6153      	str	r3, [r2, #20]
 80007ca:	4b21      	ldr	r3, [pc, #132]	; (8000850 <EXTI15_10_IRQHandler+0xc0>)
 80007cc:	6adb      	ldr	r3, [r3, #44]	; 0x2c
 80007ce:	4798      	blx	r3
 80007d0:	4b1e      	ldr	r3, [pc, #120]	; (800084c <EXTI15_10_IRQHandler+0xbc>)
 80007d2:	695b      	ldr	r3, [r3, #20]
 80007d4:	f403 5380 	and.w	r3, r3, #4096	; 0x1000
 80007d8:	2b00      	cmp	r3, #0
 80007da:	d008      	beq.n	80007ee <EXTI15_10_IRQHandler+0x5e>
 80007dc:	4b1b      	ldr	r3, [pc, #108]	; (800084c <EXTI15_10_IRQHandler+0xbc>)
 80007de:	695b      	ldr	r3, [r3, #20]
 80007e0:	4a1a      	ldr	r2, [pc, #104]	; (800084c <EXTI15_10_IRQHandler+0xbc>)
 80007e2:	f443 5380 	orr.w	r3, r3, #4096	; 0x1000
 80007e6:	6153      	str	r3, [r2, #20]
 80007e8:	4b19      	ldr	r3, [pc, #100]	; (8000850 <EXTI15_10_IRQHandler+0xc0>)
 80007ea:	6b1b      	ldr	r3, [r3, #48]	; 0x30
 80007ec:	4798      	blx	r3
 80007ee:	4b17      	ldr	r3, [pc, #92]	; (800084c <EXTI15_10_IRQHandler+0xbc>)
 80007f0:	695b      	ldr	r3, [r3, #20]
 80007f2:	f403 5300 	and.w	r3, r3, #8192	; 0x2000
 80007f6:	2b00      	cmp	r3, #0
 80007f8:	d008      	beq.n	800080c <EXTI15_10_IRQHandler+0x7c>
 80007fa:	4b14      	ldr	r3, [pc, #80]	; (800084c <EXTI15_10_IRQHandler+0xbc>)
 80007fc:	695b      	ldr	r3, [r3, #20]
 80007fe:	4a13      	ldr	r2, [pc, #76]	; (800084c <EXTI15_10_IRQHandler+0xbc>)
 8000800:	f443 5300 	orr.w	r3, r3, #8192	; 0x2000
 8000804:	6153      	str	r3, [r2, #20]
 8000806:	4b12      	ldr	r3, [pc, #72]	; (8000850 <EXTI15_10_IRQHandler+0xc0>)
 8000808:	6b5b      	ldr	r3, [r3, #52]	; 0x34
 800080a:	4798      	blx	r3
 800080c:	4b0f      	ldr	r3, [pc, #60]	; (800084c <EXTI15_10_IRQHandler+0xbc>)
 800080e:	695b      	ldr	r3, [r3, #20]
 8000810:	f403 4380 	and.w	r3, r3, #16384	; 0x4000
 8000814:	2b00      	cmp	r3, #0
 8000816:	d008      	beq.n	800082a <EXTI15_10_IRQHandler+0x9a>
 8000818:	4b0c      	ldr	r3, [pc, #48]	; (800084c <EXTI15_10_IRQHandler+0xbc>)
 800081a:	695b      	ldr	r3, [r3, #20]
 800081c:	4a0b      	ldr	r2, [pc, #44]	; (800084c <EXTI15_10_IRQHandler+0xbc>)
 800081e:	f443 4380 	orr.w	r3, r3, #16384	; 0x4000
 8000822:	6153      	str	r3, [r2, #20]
 8000824:	4b0a      	ldr	r3, [pc, #40]	; (8000850 <EXTI15_10_IRQHandler+0xc0>)
 8000826:	6b9b      	ldr	r3, [r3, #56]	; 0x38
 8000828:	4798      	blx	r3
 800082a:	4b08      	ldr	r3, [pc, #32]	; (800084c <EXTI15_10_IRQHandler+0xbc>)
 800082c:	695b      	ldr	r3, [r3, #20]
 800082e:	f403 4380 	and.w	r3, r3, #16384	; 0x4000
 8000832:	2b00      	cmp	r3, #0
 8000834:	d008      	beq.n	8000848 <EXTI15_10_IRQHandler+0xb8>
 8000836:	4b05      	ldr	r3, [pc, #20]	; (800084c <EXTI15_10_IRQHandler+0xbc>)
 8000838:	695b      	ldr	r3, [r3, #20]
 800083a:	4a04      	ldr	r2, [pc, #16]	; (800084c <EXTI15_10_IRQHandler+0xbc>)
 800083c:	f443 4300 	orr.w	r3, r3, #32768	; 0x8000
 8000840:	6153      	str	r3, [r2, #20]
 8000842:	4b03      	ldr	r3, [pc, #12]	; (8000850 <EXTI15_10_IRQHandler+0xc0>)
 8000844:	6bdb      	ldr	r3, [r3, #60]	; 0x3c
 8000846:	4798      	blx	r3
 8000848:	bf00      	nop
 800084a:	bd80      	pop	{r7, pc}
 800084c:	40010400 	andmi	r0, r1, r0, lsl #8
 8000850:	20000020 	andcs	r0, r0, r0, lsr #32

08000854 <Get_CRLH_Position>:
 8000854:	b480      	push	{r7}
 8000856:	b083      	sub	sp, #12
 8000858:	af00      	add	r7, sp, #0
 800085a:	4603      	mov	r3, r0
 800085c:	80fb      	strh	r3, [r7, #6]
 800085e:	88fb      	ldrh	r3, [r7, #6]
 8000860:	2b80      	cmp	r3, #128	; 0x80
 8000862:	d042      	beq.n	80008ea <Get_CRLH_Position+0x96>
 8000864:	2b80      	cmp	r3, #128	; 0x80
 8000866:	dc11      	bgt.n	800088c <Get_CRLH_Position+0x38>
 8000868:	2b08      	cmp	r3, #8
 800086a:	d036      	beq.n	80008da <Get_CRLH_Position+0x86>
 800086c:	2b08      	cmp	r3, #8
 800086e:	dc06      	bgt.n	800087e <Get_CRLH_Position+0x2a>
 8000870:	2b02      	cmp	r3, #2
 8000872:	d02e      	beq.n	80008d2 <Get_CRLH_Position+0x7e>
 8000874:	2b04      	cmp	r3, #4
 8000876:	d02e      	beq.n	80008d6 <Get_CRLH_Position+0x82>
 8000878:	2b01      	cmp	r3, #1
 800087a:	d028      	beq.n	80008ce <Get_CRLH_Position+0x7a>
 800087c:	e047      	b.n	800090e <Get_CRLH_Position+0xba>
 800087e:	2b20      	cmp	r3, #32
 8000880:	d02f      	beq.n	80008e2 <Get_CRLH_Position+0x8e>
 8000882:	2b40      	cmp	r3, #64	; 0x40
 8000884:	d02f      	beq.n	80008e6 <Get_CRLH_Position+0x92>
 8000886:	2b10      	cmp	r3, #16
 8000888:	d029      	beq.n	80008de <Get_CRLH_Position+0x8a>
 800088a:	e040      	b.n	800090e <Get_CRLH_Position+0xba>
 800088c:	f5b3 6f00 	cmp.w	r3, #2048	; 0x800
 8000890:	d033      	beq.n	80008fa <Get_CRLH_Position+0xa6>
 8000892:	f5b3 6f00 	cmp.w	r3, #2048	; 0x800
 8000896:	dc09      	bgt.n	80008ac <Get_CRLH_Position+0x58>
 8000898:	f5b3 7f00 	cmp.w	r3, #512	; 0x200
 800089c:	d029      	beq.n	80008f2 <Get_CRLH_Position+0x9e>
 800089e:	f5b3 6f80 	cmp.w	r3, #1024	; 0x400
 80008a2:	d028      	beq.n	80008f6 <Get_CRLH_Position+0xa2>
 80008a4:	f5b3 7f80 	cmp.w	r3, #256	; 0x100
 80008a8:	d021      	beq.n	80008ee <Get_CRLH_Position+0x9a>
 80008aa:	e030      	b.n	800090e <Get_CRLH_Position+0xba>
 80008ac:	f5b3 5f00 	cmp.w	r3, #8192	; 0x2000
 80008b0:	d027      	beq.n	8000902 <Get_CRLH_Position+0xae>
 80008b2:	f5b3 5f00 	cmp.w	r3, #8192	; 0x2000
 80008b6:	dc03      	bgt.n	80008c0 <Get_CRLH_Position+0x6c>
 80008b8:	f5b3 5f80 	cmp.w	r3, #4096	; 0x1000
 80008bc:	d01f      	beq.n	80008fe <Get_CRLH_Position+0xaa>
 80008be:	e026      	b.n	800090e <Get_CRLH_Position+0xba>
 80008c0:	f5b3 4f80 	cmp.w	r3, #16384	; 0x4000
 80008c4:	d01f      	beq.n	8000906 <Get_CRLH_Position+0xb2>
 80008c6:	f5b3 4f00 	cmp.w	r3, #32768	; 0x8000
 80008ca:	d01e      	beq.n	800090a <Get_CRLH_Position+0xb6>
 80008cc:	e01f      	b.n	800090e <Get_CRLH_Position+0xba>
 80008ce:	2300      	movs	r3, #0
 80008d0:	e01e      	b.n	8000910 <Get_CRLH_Position+0xbc>
 80008d2:	2304      	movs	r3, #4
 80008d4:	e01c      	b.n	8000910 <Get_CRLH_Position+0xbc>
 80008d6:	2308      	movs	r3, #8
 80008d8:	e01a      	b.n	8000910 <Get_CRLH_Position+0xbc>
 80008da:	230c      	movs	r3, #12
 80008dc:	e018      	b.n	8000910 <Get_CRLH_Position+0xbc>
 80008de:	2310      	movs	r3, #16
 80008e0:	e016      	b.n	8000910 <Get_CRLH_Position+0xbc>
 80008e2:	2314      	movs	r3, #20
 80008e4:	e014      	b.n	8000910 <Get_CRLH_Position+0xbc>
 80008e6:	2318      	movs	r3, #24
 80008e8:	e012      	b.n	8000910 <Get_CRLH_Position+0xbc>
 80008ea:	231c      	movs	r3, #28
 80008ec:	e010      	b.n	8000910 <Get_CRLH_Position+0xbc>
 80008ee:	2300      	movs	r3, #0
 80008f0:	e00e      	b.n	8000910 <Get_CRLH_Position+0xbc>
 80008f2:	2304      	movs	r3, #4
 80008f4:	e00c      	b.n	8000910 <Get_CRLH_Position+0xbc>
 80008f6:	2308      	movs	r3, #8
 80008f8:	e00a      	b.n	8000910 <Get_CRLH_Position+0xbc>
 80008fa:	230c      	movs	r3, #12
 80008fc:	e008      	b.n	8000910 <Get_CRLH_Position+0xbc>
 80008fe:	2310      	movs	r3, #16
 8000900:	e006      	b.n	8000910 <Get_CRLH_Position+0xbc>
 8000902:	2314      	movs	r3, #20
 8000904:	e004      	b.n	8000910 <Get_CRLH_Position+0xbc>
 8000906:	2318      	movs	r3, #24
 8000908:	e002      	b.n	8000910 <Get_CRLH_Position+0xbc>
 800090a:	231c      	movs	r3, #28
 800090c:	e000      	b.n	8000910 <Get_CRLH_Position+0xbc>
 800090e:	2300      	movs	r3, #0
 8000910:	4618      	mov	r0, r3
 8000912:	370c      	adds	r7, #12
 8000914:	46bd      	mov	sp, r7
 8000916:	bc80      	pop	{r7}
 8000918:	4770      	bx	lr

0800091a <MCAL_GPIO_Init>:
 800091a:	b590      	push	{r4, r7, lr}
 800091c:	b085      	sub	sp, #20
 800091e:	af00      	add	r7, sp, #0
 8000920:	6078      	str	r0, [r7, #4]
 8000922:	6039      	str	r1, [r7, #0]
 8000924:	2300      	movs	r3, #0
 8000926:	60bb      	str	r3, [r7, #8]
 8000928:	2300      	movs	r3, #0
 800092a:	73fb      	strb	r3, [r7, #15]
 800092c:	683b      	ldr	r3, [r7, #0]
 800092e:	881b      	ldrh	r3, [r3, #0]
 8000930:	2bff      	cmp	r3, #255	; 0xff
 8000932:	d801      	bhi.n	8000938 <MCAL_GPIO_Init+0x1e>
 8000934:	687b      	ldr	r3, [r7, #4]
 8000936:	e001      	b.n	800093c <MCAL_GPIO_Init+0x22>
 8000938:	687b      	ldr	r3, [r7, #4]
 800093a:	3304      	adds	r3, #4
 800093c:	60bb      	str	r3, [r7, #8]
 800093e:	683b      	ldr	r3, [r7, #0]
 8000940:	881b      	ldrh	r3, [r3, #0]
 8000942:	4618      	mov	r0, r3
 8000944:	f7ff ff86 	bl	8000854 <Get_CRLH_Position>
 8000948:	4603      	mov	r3, r0
 800094a:	461a      	mov	r2, r3
 800094c:	230f      	movs	r3, #15
 800094e:	4093      	lsls	r3, r2
 8000950:	43da      	mvns	r2, r3
 8000952:	68bb      	ldr	r3, [r7, #8]
 8000954:	681b      	ldr	r3, [r3, #0]
 8000956:	401a      	ands	r2, r3
 8000958:	68bb      	ldr	r3, [r7, #8]
 800095a:	601a      	str	r2, [r3, #0]
 800095c:	683b      	ldr	r3, [r7, #0]
 800095e:	789b      	ldrb	r3, [r3, #2]
 8000960:	2b07      	cmp	r3, #7
 8000962:	d00b      	beq.n	800097c <MCAL_GPIO_Init+0x62>
 8000964:	683b      	ldr	r3, [r7, #0]
 8000966:	789b      	ldrb	r3, [r3, #2]
 8000968:	2b06      	cmp	r3, #6
 800096a:	d007      	beq.n	800097c <MCAL_GPIO_Init+0x62>
 800096c:	683b      	ldr	r3, [r7, #0]
 800096e:	789b      	ldrb	r3, [r3, #2]
 8000970:	2b05      	cmp	r3, #5
 8000972:	d003      	beq.n	800097c <MCAL_GPIO_Init+0x62>
 8000974:	683b      	ldr	r3, [r7, #0]
 8000976:	789b      	ldrb	r3, [r3, #2]
 8000978:	2b04      	cmp	r3, #4
 800097a:	d10e      	bne.n	800099a <MCAL_GPIO_Init+0x80>
 800097c:	683b      	ldr	r3, [r7, #0]
 800097e:	789b      	ldrb	r3, [r3, #2]
 8000980:	3b04      	subs	r3, #4
 8000982:	009b      	lsls	r3, r3, #2
 8000984:	b25a      	sxtb	r2, r3
 8000986:	683b      	ldr	r3, [r7, #0]
 8000988:	78db      	ldrb	r3, [r3, #3]
 800098a:	b25b      	sxtb	r3, r3
 800098c:	4313      	orrs	r3, r2
 800098e:	b25b      	sxtb	r3, r3
 8000990:	b2db      	uxtb	r3, r3
 8000992:	f003 030f 	and.w	r3, r3, #15
 8000996:	73fb      	strb	r3, [r7, #15]
 8000998:	e02c      	b.n	80009f4 <MCAL_GPIO_Init+0xda>
 800099a:	683b      	ldr	r3, [r7, #0]
 800099c:	789b      	ldrb	r3, [r3, #2]
 800099e:	2b01      	cmp	r3, #1
 80009a0:	d003      	beq.n	80009aa <MCAL_GPIO_Init+0x90>
 80009a2:	683b      	ldr	r3, [r7, #0]
 80009a4:	789b      	ldrb	r3, [r3, #2]
 80009a6:	2b00      	cmp	r3, #0
 80009a8:	d107      	bne.n	80009ba <MCAL_GPIO_Init+0xa0>
 80009aa:	683b      	ldr	r3, [r7, #0]
 80009ac:	789b      	ldrb	r3, [r3, #2]
 80009ae:	009b      	lsls	r3, r3, #2
 80009b0:	b2db      	uxtb	r3, r3
 80009b2:	f003 030f 	and.w	r3, r3, #15
 80009b6:	73fb      	strb	r3, [r7, #15]
 80009b8:	e01c      	b.n	80009f4 <MCAL_GPIO_Init+0xda>
 80009ba:	683b      	ldr	r3, [r7, #0]
 80009bc:	789b      	ldrb	r3, [r3, #2]
 80009be:	2b08      	cmp	r3, #8
 80009c0:	d102      	bne.n	80009c8 <MCAL_GPIO_Init+0xae>
 80009c2:	2304      	movs	r3, #4
 80009c4:	73fb      	strb	r3, [r7, #15]
 80009c6:	e015      	b.n	80009f4 <MCAL_GPIO_Init+0xda>
 80009c8:	2308      	movs	r3, #8
 80009ca:	73fb      	strb	r3, [r7, #15]
 80009cc:	683b      	ldr	r3, [r7, #0]
 80009ce:	789b      	ldrb	r3, [r3, #2]
 80009d0:	2b02      	cmp	r3, #2
 80009d2:	d107      	bne.n	80009e4 <MCAL_GPIO_Init+0xca>
 80009d4:	687b      	ldr	r3, [r7, #4]
 80009d6:	68db      	ldr	r3, [r3, #12]
 80009d8:	683a      	ldr	r2, [r7, #0]
 80009da:	8812      	ldrh	r2, [r2, #0]
 80009dc:	431a      	orrs	r2, r3
 80009de:	687b      	ldr	r3, [r7, #4]
 80009e0:	60da      	str	r2, [r3, #12]
 80009e2:	e007      	b.n	80009f4 <MCAL_GPIO_Init+0xda>
 80009e4:	687b      	ldr	r3, [r7, #4]
 80009e6:	68db      	ldr	r3, [r3, #12]
 80009e8:	683a      	ldr	r2, [r7, #0]
 80009ea:	8812      	ldrh	r2, [r2, #0]
 80009ec:	43d2      	mvns	r2, r2
 80009ee:	401a      	ands	r2, r3
 80009f0:	687b      	ldr	r3, [r7, #4]
 80009f2:	60da      	str	r2, [r3, #12]
 80009f4:	7bfc      	ldrb	r4, [r7, #15]
 80009f6:	683b      	ldr	r3, [r7, #0]
 80009f8:	881b      	ldrh	r3, [r3, #0]
 80009fa:	4618      	mov	r0, r3
 80009fc:	f7ff ff2a 	bl	8000854 <Get_CRLH_Position>
 8000a00:	4603      	mov	r3, r0
 8000a02:	fa04 f203 	lsl.w	r2, r4, r3
 8000a06:	68bb      	ldr	r3, [r7, #8]
 8000a08:	681b      	ldr	r3, [r3, #0]
 8000a0a:	431a      	orrs	r2, r3
 8000a0c:	68bb      	ldr	r3, [r7, #8]
 8000a0e:	601a      	str	r2, [r3, #0]
 8000a10:	bf00      	nop
 8000a12:	3714      	adds	r7, #20
 8000a14:	46bd      	mov	sp, r7
 8000a16:	bd90      	pop	{r4, r7, pc}

08000a18 <Slave_States>:
 8000a18:	b580      	push	{r7, lr}
 8000a1a:	b084      	sub	sp, #16
 8000a1c:	af00      	add	r7, sp, #0
 8000a1e:	6078      	str	r0, [r7, #4]
 8000a20:	460b      	mov	r3, r1
 8000a22:	70fb      	strb	r3, [r7, #3]
 8000a24:	687b      	ldr	r3, [r7, #4]
 8000a26:	4a32      	ldr	r2, [pc, #200]	; (8000af0 <Slave_States+0xd8>)
 8000a28:	4293      	cmp	r3, r2
 8000a2a:	bf14      	ite	ne
 8000a2c:	2301      	movne	r3, #1
 8000a2e:	2300      	moveq	r3, #0
 8000a30:	b2db      	uxtb	r3, r3
 8000a32:	73fb      	strb	r3, [r7, #15]
 8000a34:	78fb      	ldrb	r3, [r7, #3]
 8000a36:	2b04      	cmp	r3, #4
 8000a38:	d856      	bhi.n	8000ae8 <Slave_States+0xd0>
 8000a3a:	a201      	add	r2, pc, #4	; (adr r2, 8000a40 <Slave_States+0x28>)
 8000a3c:	f852 f023 	ldr.w	pc, [r2, r3, lsl #2]
 8000a40:	08000a5b 	stmdaeq	r0, {r0, r1, r3, r4, r6, r9, fp}
 8000a44:	08000a55 	stmdaeq	r0, {r0, r2, r4, r6, r9, fp}
 8000a48:	08000a7f 	stmdaeq	r0, {r0, r1, r2, r3, r4, r5, r6, r9, fp}
 8000a4c:	08000a97 	stmdaeq	r0, {r0, r1, r2, r4, r7, r9, fp}
 8000a50:	08000abb 	stmdaeq	r0, {r0, r1, r3, r4, r5, r7, r9, fp}
 8000a54:	687b      	ldr	r3, [r7, #4]
 8000a56:	699b      	ldr	r3, [r3, #24]
 8000a58:	e046      	b.n	8000ae8 <Slave_States+0xd0>
 8000a5a:	687b      	ldr	r3, [r7, #4]
 8000a5c:	699b      	ldr	r3, [r3, #24]
 8000a5e:	f003 0304 	and.w	r3, r3, #4
 8000a62:	2b00      	cmp	r3, #0
 8000a64:	d03b      	beq.n	8000ade <Slave_States+0xc6>
 8000a66:	7bfa      	ldrb	r2, [r7, #15]
 8000a68:	4922      	ldr	r1, [pc, #136]	; (8000af4 <Slave_States+0xdc>)
 8000a6a:	4613      	mov	r3, r2
 8000a6c:	00db      	lsls	r3, r3, #3
 8000a6e:	4413      	add	r3, r2
 8000a70:	009b      	lsls	r3, r3, #2
 8000a72:	440b      	add	r3, r1
 8000a74:	3320      	adds	r3, #32
 8000a76:	681b      	ldr	r3, [r3, #0]
 8000a78:	2000      	movs	r0, #0
 8000a7a:	4798      	blx	r3
 8000a7c:	e02f      	b.n	8000ade <Slave_States+0xc6>
 8000a7e:	7bfa      	ldrb	r2, [r7, #15]
 8000a80:	491c      	ldr	r1, [pc, #112]	; (8000af4 <Slave_States+0xdc>)
 8000a82:	4613      	mov	r3, r2
 8000a84:	00db      	lsls	r3, r3, #3
 8000a86:	4413      	add	r3, r2
 8000a88:	009b      	lsls	r3, r3, #2
 8000a8a:	440b      	add	r3, r1
 8000a8c:	3320      	adds	r3, #32
 8000a8e:	681b      	ldr	r3, [r3, #0]
 8000a90:	2002      	movs	r0, #2
 8000a92:	4798      	blx	r3
 8000a94:	e028      	b.n	8000ae8 <Slave_States+0xd0>
 8000a96:	687b      	ldr	r3, [r7, #4]
 8000a98:	699b      	ldr	r3, [r3, #24]
 8000a9a:	f003 0304 	and.w	r3, r3, #4
 8000a9e:	2b00      	cmp	r3, #0
 8000aa0:	d01f      	beq.n	8000ae2 <Slave_States+0xca>
 8000aa2:	7bfa      	ldrb	r2, [r7, #15]
 8000aa4:	4913      	ldr	r1, [pc, #76]	; (8000af4 <Slave_States+0xdc>)
 8000aa6:	4613      	mov	r3, r2
 8000aa8:	00db      	lsls	r3, r3, #3
 8000aaa:	4413      	add	r3, r2
 8000aac:	009b      	lsls	r3, r3, #2
 8000aae:	440b      	add	r3, r1
 8000ab0:	3320      	adds	r3, #32
 8000ab2:	681b      	ldr	r3, [r3, #0]
 8000ab4:	2003      	movs	r0, #3
 8000ab6:	4798      	blx	r3
 8000ab8:	e013      	b.n	8000ae2 <Slave_States+0xca>
 8000aba:	687b      	ldr	r3, [r7, #4]
 8000abc:	699b      	ldr	r3, [r3, #24]
 8000abe:	f003 0304 	and.w	r3, r3, #4
 8000ac2:	2b00      	cmp	r3, #0
 8000ac4:	d10f      	bne.n	8000ae6 <Slave_States+0xce>
 8000ac6:	7bfa      	ldrb	r2, [r7, #15]
 8000ac8:	490a      	ldr	r1, [pc, #40]	; (8000af4 <Slave_States+0xdc>)
 8000aca:	4613      	mov	r3, r2
 8000acc:	00db      	lsls	r3, r3, #3
 8000ace:	4413      	add	r3, r2
 8000ad0:	009b      	lsls	r3, r3, #2
 8000ad2:	440b      	add	r3, r1
 8000ad4:	3320      	adds	r3, #32
 8000ad6:	681b      	ldr	r3, [r3, #0]
 8000ad8:	2004      	movs	r0, #4
 8000ada:	4798      	blx	r3
 8000adc:	e003      	b.n	8000ae6 <Slave_States+0xce>
 8000ade:	bf00      	nop
 8000ae0:	e002      	b.n	8000ae8 <Slave_States+0xd0>
 8000ae2:	bf00      	nop
 8000ae4:	e000      	b.n	8000ae8 <Slave_States+0xd0>
 8000ae6:	bf00      	nop
 8000ae8:	bf00      	nop
 8000aea:	3710      	adds	r7, #16
 8000aec:	46bd      	mov	sp, r7
 8000aee:	bd80      	pop	{r7, pc}
 8000af0:	40005400 	andmi	r5, r0, r0, lsl #8
 8000af4:	2000005c 	andcs	r0, r0, ip, asr r0

08000af8 <I2C1_EV_IRQHandler>:
 8000af8:	b580      	push	{r7, lr}
 8000afa:	b086      	sub	sp, #24
 8000afc:	af00      	add	r7, sp, #0
 8000afe:	2300      	movs	r3, #0
 8000b00:	607b      	str	r3, [r7, #4]
 8000b02:	4b35      	ldr	r3, [pc, #212]	; (8000bd8 <I2C1_EV_IRQHandler+0xe0>)
 8000b04:	617b      	str	r3, [r7, #20]
 8000b06:	697b      	ldr	r3, [r7, #20]
 8000b08:	685b      	ldr	r3, [r3, #4]
 8000b0a:	f403 7300 	and.w	r3, r3, #512	; 0x200
 8000b0e:	613b      	str	r3, [r7, #16]
 8000b10:	697b      	ldr	r3, [r7, #20]
 8000b12:	685b      	ldr	r3, [r3, #4]
 8000b14:	f403 6380 	and.w	r3, r3, #1024	; 0x400
 8000b18:	60fb      	str	r3, [r7, #12]
 8000b1a:	697b      	ldr	r3, [r7, #20]
 8000b1c:	695b      	ldr	r3, [r3, #20]
 8000b1e:	f003 0310 	and.w	r3, r3, #16
 8000b22:	60bb      	str	r3, [r7, #8]
 8000b24:	693b      	ldr	r3, [r7, #16]
 8000b26:	2b00      	cmp	r3, #0
 8000b28:	d00c      	beq.n	8000b44 <I2C1_EV_IRQHandler+0x4c>
 8000b2a:	68bb      	ldr	r3, [r7, #8]
 8000b2c:	2b00      	cmp	r3, #0
 8000b2e:	d009      	beq.n	8000b44 <I2C1_EV_IRQHandler+0x4c>
 8000b30:	697b      	ldr	r3, [r7, #20]
 8000b32:	695b      	ldr	r3, [r3, #20]
 8000b34:	607b      	str	r3, [r7, #4]
 8000b36:	697b      	ldr	r3, [r7, #20]
 8000b38:	2200      	movs	r2, #0
 8000b3a:	601a      	str	r2, [r3, #0]
 8000b3c:	2100      	movs	r1, #0
 8000b3e:	6978      	ldr	r0, [r7, #20]
 8000b40:	f7ff ff6a 	bl	8000a18 <Slave_States>
 8000b44:	697b      	ldr	r3, [r7, #20]
 8000b46:	695b      	ldr	r3, [r3, #20]
 8000b48:	f003 0302 	and.w	r3, r3, #2
 8000b4c:	60bb      	str	r3, [r7, #8]
 8000b4e:	693b      	ldr	r3, [r7, #16]
 8000b50:	2b00      	cmp	r3, #0
 8000b52:	d012      	beq.n	8000b7a <I2C1_EV_IRQHandler+0x82>
 8000b54:	68bb      	ldr	r3, [r7, #8]
 8000b56:	2b00      	cmp	r3, #0
 8000b58:	d00f      	beq.n	8000b7a <I2C1_EV_IRQHandler+0x82>
 8000b5a:	697b      	ldr	r3, [r7, #20]
 8000b5c:	699b      	ldr	r3, [r3, #24]
 8000b5e:	f003 0301 	and.w	r3, r3, #1
 8000b62:	2b00      	cmp	r3, #0
 8000b64:	d109      	bne.n	8000b7a <I2C1_EV_IRQHandler+0x82>
 8000b66:	697b      	ldr	r3, [r7, #20]
 8000b68:	695b      	ldr	r3, [r3, #20]
 8000b6a:	607b      	str	r3, [r7, #4]
 8000b6c:	697b      	ldr	r3, [r7, #20]
 8000b6e:	699b      	ldr	r3, [r3, #24]
 8000b70:	607b      	str	r3, [r7, #4]
 8000b72:	2102      	movs	r1, #2
 8000b74:	6978      	ldr	r0, [r7, #20]
 8000b76:	f7ff ff4f 	bl	8000a18 <Slave_States>
 8000b7a:	697b      	ldr	r3, [r7, #20]
 8000b7c:	695b      	ldr	r3, [r3, #20]
 8000b7e:	f003 0380 	and.w	r3, r3, #128	; 0x80
 8000b82:	60bb      	str	r3, [r7, #8]
 8000b84:	693b      	ldr	r3, [r7, #16]
 8000b86:	2b00      	cmp	r3, #0
 8000b88:	d00c      	beq.n	8000ba4 <I2C1_EV_IRQHandler+0xac>
 8000b8a:	68bb      	ldr	r3, [r7, #8]
 8000b8c:	2b00      	cmp	r3, #0
 8000b8e:	d009      	beq.n	8000ba4 <I2C1_EV_IRQHandler+0xac>
 8000b90:	697b      	ldr	r3, [r7, #20]
 8000b92:	699b      	ldr	r3, [r3, #24]
 8000b94:	f003 0301 	and.w	r3, r3, #1
 8000b98:	2b00      	cmp	r3, #0
 8000b9a:	d103      	bne.n	8000ba4 <I2C1_EV_IRQHandler+0xac>
 8000b9c:	2103      	movs	r1, #3
 8000b9e:	6978      	ldr	r0, [r7, #20]
 8000ba0:	f7ff ff3a 	bl	8000a18 <Slave_States>
 8000ba4:	697b      	ldr	r3, [r7, #20]
 8000ba6:	695b      	ldr	r3, [r3, #20]
 8000ba8:	f003 0340 	and.w	r3, r3, #64	; 0x40
 8000bac:	60bb      	str	r3, [r7, #8]
 8000bae:	693b      	ldr	r3, [r7, #16]
 8000bb0:	2b00      	cmp	r3, #0
 8000bb2:	d00c      	beq.n	8000bce <I2C1_EV_IRQHandler+0xd6>
 8000bb4:	68bb      	ldr	r3, [r7, #8]
 8000bb6:	2b00      	cmp	r3, #0
 8000bb8:	d009      	beq.n	8000bce <I2C1_EV_IRQHandler+0xd6>
 8000bba:	697b      	ldr	r3, [r7, #20]
 8000bbc:	699b      	ldr	r3, [r3, #24]
 8000bbe:	f003 0301 	and.w	r3, r3, #1
 8000bc2:	2b00      	cmp	r3, #0
 8000bc4:	d103      	bne.n	8000bce <I2C1_EV_IRQHandler+0xd6>
 8000bc6:	2104      	movs	r1, #4
 8000bc8:	6978      	ldr	r0, [r7, #20]
 8000bca:	f7ff ff25 	bl	8000a18 <Slave_States>
 8000bce:	bf00      	nop
 8000bd0:	3718      	adds	r7, #24
 8000bd2:	46bd      	mov	sp, r7
 8000bd4:	bd80      	pop	{r7, pc}
 8000bd6:	bf00      	nop
 8000bd8:	40005400 	andmi	r5, r0, r0, lsl #8

08000bdc <I2C1_ER_IRQHandler>:
 8000bdc:	b480      	push	{r7}
 8000bde:	af00      	add	r7, sp, #0
 8000be0:	bf00      	nop
 8000be2:	46bd      	mov	sp, r7
 8000be4:	bc80      	pop	{r7}
 8000be6:	4770      	bx	lr

08000be8 <I2C2_EV_IRQHandler>:
 8000be8:	b480      	push	{r7}
 8000bea:	af00      	add	r7, sp, #0
 8000bec:	bf00      	nop
 8000bee:	46bd      	mov	sp, r7
 8000bf0:	bc80      	pop	{r7}
 8000bf2:	4770      	bx	lr

08000bf4 <I2C2_ER_IRQHandler>:
 8000bf4:	b480      	push	{r7}
 8000bf6:	af00      	add	r7, sp, #0
 8000bf8:	bf00      	nop
 8000bfa:	46bd      	mov	sp, r7
 8000bfc:	bc80      	pop	{r7}
 8000bfe:	4770      	bx	lr

08000c00 <SPI1_IRQHandler>:
 8000c00:	b580      	push	{r7, lr}
 8000c02:	b082      	sub	sp, #8
 8000c04:	af00      	add	r7, sp, #0
 8000c06:	4b13      	ldr	r3, [pc, #76]	; (8000c54 <SPI1_IRQHandler+0x54>)
 8000c08:	689b      	ldr	r3, [r3, #8]
 8000c0a:	085b      	lsrs	r3, r3, #1
 8000c0c:	f003 0301 	and.w	r3, r3, #1
 8000c10:	b2da      	uxtb	r2, r3
 8000c12:	793b      	ldrb	r3, [r7, #4]
 8000c14:	f362 0300 	bfi	r3, r2, #0, #1
 8000c18:	713b      	strb	r3, [r7, #4]
 8000c1a:	4b0e      	ldr	r3, [pc, #56]	; (8000c54 <SPI1_IRQHandler+0x54>)
 8000c1c:	689b      	ldr	r3, [r3, #8]
 8000c1e:	f003 0301 	and.w	r3, r3, #1
 8000c22:	b2da      	uxtb	r2, r3
 8000c24:	793b      	ldrb	r3, [r7, #4]
 8000c26:	f362 0341 	bfi	r3, r2, #1, #1
 8000c2a:	713b      	strb	r3, [r7, #4]
 8000c2c:	4b09      	ldr	r3, [pc, #36]	; (8000c54 <SPI1_IRQHandler+0x54>)
 8000c2e:	689b      	ldr	r3, [r3, #8]
 8000c30:	091b      	lsrs	r3, r3, #4
 8000c32:	f003 0301 	and.w	r3, r3, #1
 8000c36:	b2da      	uxtb	r2, r3
 8000c38:	793b      	ldrb	r3, [r7, #4]
 8000c3a:	f362 0382 	bfi	r3, r2, #2, #1
 8000c3e:	713b      	strb	r3, [r7, #4]
 8000c40:	4b05      	ldr	r3, [pc, #20]	; (8000c58 <SPI1_IRQHandler+0x58>)
 8000c42:	681b      	ldr	r3, [r3, #0]
 8000c44:	695b      	ldr	r3, [r3, #20]
 8000c46:	7938      	ldrb	r0, [r7, #4]
 8000c48:	4798      	blx	r3
 8000c4a:	bf00      	nop
 8000c4c:	3708      	adds	r7, #8
 8000c4e:	46bd      	mov	sp, r7
 8000c50:	bd80      	pop	{r7, pc}
 8000c52:	bf00      	nop
 8000c54:	40013000 	andmi	r3, r1, r0
 8000c58:	200000a4 	andcs	r0, r0, r4, lsr #1

08000c5c <SPI2_IRQHandler>:
 8000c5c:	b580      	push	{r7, lr}
 8000c5e:	b082      	sub	sp, #8
 8000c60:	af00      	add	r7, sp, #0
 8000c62:	4b13      	ldr	r3, [pc, #76]	; (8000cb0 <SPI2_IRQHandler+0x54>)
 8000c64:	689b      	ldr	r3, [r3, #8]
 8000c66:	085b      	lsrs	r3, r3, #1
 8000c68:	f003 0301 	and.w	r3, r3, #1
 8000c6c:	b2da      	uxtb	r2, r3
 8000c6e:	793b      	ldrb	r3, [r7, #4]
 8000c70:	f362 0300 	bfi	r3, r2, #0, #1
 8000c74:	713b      	strb	r3, [r7, #4]
 8000c76:	4b0e      	ldr	r3, [pc, #56]	; (8000cb0 <SPI2_IRQHandler+0x54>)
 8000c78:	689b      	ldr	r3, [r3, #8]
 8000c7a:	f003 0301 	and.w	r3, r3, #1
 8000c7e:	b2da      	uxtb	r2, r3
 8000c80:	793b      	ldrb	r3, [r7, #4]
 8000c82:	f362 0341 	bfi	r3, r2, #1, #1
 8000c86:	713b      	strb	r3, [r7, #4]
 8000c88:	4b09      	ldr	r3, [pc, #36]	; (8000cb0 <SPI2_IRQHandler+0x54>)
 8000c8a:	689b      	ldr	r3, [r3, #8]
 8000c8c:	091b      	lsrs	r3, r3, #4
 8000c8e:	f003 0301 	and.w	r3, r3, #1
 8000c92:	b2da      	uxtb	r2, r3
 8000c94:	793b      	ldrb	r3, [r7, #4]
 8000c96:	f362 0382 	bfi	r3, r2, #2, #1
 8000c9a:	713b      	strb	r3, [r7, #4]
 8000c9c:	4b05      	ldr	r3, [pc, #20]	; (8000cb4 <SPI2_IRQHandler+0x58>)
 8000c9e:	685b      	ldr	r3, [r3, #4]
 8000ca0:	695b      	ldr	r3, [r3, #20]
 8000ca2:	7938      	ldrb	r0, [r7, #4]
 8000ca4:	4798      	blx	r3
 8000ca6:	bf00      	nop
 8000ca8:	3708      	adds	r7, #8
 8000caa:	46bd      	mov	sp, r7
 8000cac:	bd80      	pop	{r7, pc}
 8000cae:	bf00      	nop
 8000cb0:	40013000 	andmi	r3, r1, r0
 8000cb4:	200000a4 	andcs	r0, r0, r4, lsr #1

08000cb8 <USART1_IRQHandler>:
 8000cb8:	b580      	push	{r7, lr}
 8000cba:	af00      	add	r7, sp, #0
 8000cbc:	4b02      	ldr	r3, [pc, #8]	; (8000cc8 <USART1_IRQHandler+0x10>)
 8000cbe:	681b      	ldr	r3, [r3, #0]
 8000cc0:	691b      	ldr	r3, [r3, #16]
 8000cc2:	4798      	blx	r3
 8000cc4:	bf00      	nop
 8000cc6:	bd80      	pop	{r7, pc}
 8000cc8:	200000ac 	andcs	r0, r0, ip, lsr #1

08000ccc <USART2_IRQHandler>:
 8000ccc:	b580      	push	{r7, lr}
 8000cce:	af00      	add	r7, sp, #0
 8000cd0:	4b02      	ldr	r3, [pc, #8]	; (8000cdc <USART2_IRQHandler+0x10>)
 8000cd2:	681b      	ldr	r3, [r3, #0]
 8000cd4:	691b      	ldr	r3, [r3, #16]
 8000cd6:	4798      	blx	r3
 8000cd8:	bf00      	nop
 8000cda:	bd80      	pop	{r7, pc}
 8000cdc:	200000ac 	andcs	r0, r0, ip, lsr #1

08000ce0 <USART3_IRQHandler>:
 8000ce0:	b580      	push	{r7, lr}
 8000ce2:	af00      	add	r7, sp, #0
 8000ce4:	4b02      	ldr	r3, [pc, #8]	; (8000cf0 <USART3_IRQHandler+0x10>)
 8000ce6:	681b      	ldr	r3, [r3, #0]
 8000ce8:	691b      	ldr	r3, [r3, #16]
 8000cea:	4798      	blx	r3
 8000cec:	bf00      	nop
 8000cee:	bd80      	pop	{r7, pc}
 8000cf0:	200000ac 	andcs	r0, r0, ip, lsr #1

08000cf4 <__libc_init_array>:
 8000cf4:	b570      	push	{r4, r5, r6, lr}
 8000cf6:	2500      	movs	r5, #0
 8000cf8:	4e0c      	ldr	r6, [pc, #48]	; (8000d2c <__libc_init_array+0x38>)
 8000cfa:	4c0d      	ldr	r4, [pc, #52]	; (8000d30 <__libc_init_array+0x3c>)
 8000cfc:	1ba4      	subs	r4, r4, r6
 8000cfe:	10a4      	asrs	r4, r4, #2
 8000d00:	42a5      	cmp	r5, r4
 8000d02:	d109      	bne.n	8000d18 <__libc_init_array+0x24>
 8000d04:	f000 f81a 	bl	8000d3c <_init>
 8000d08:	2500      	movs	r5, #0
 8000d0a:	4e0a      	ldr	r6, [pc, #40]	; (8000d34 <__libc_init_array+0x40>)
 8000d0c:	4c0a      	ldr	r4, [pc, #40]	; (8000d38 <__libc_init_array+0x44>)
 8000d0e:	1ba4      	subs	r4, r4, r6
 8000d10:	10a4      	asrs	r4, r4, #2
 8000d12:	42a5      	cmp	r5, r4
 8000d14:	d105      	bne.n	8000d22 <__libc_init_array+0x2e>
 8000d16:	bd70      	pop	{r4, r5, r6, pc}
 8000d18:	f856 3025 	ldr.w	r3, [r6, r5, lsl #2]
 8000d1c:	4798      	blx	r3
 8000d1e:	3501      	adds	r5, #1
 8000d20:	e7ee      	b.n	8000d00 <__libc_init_array+0xc>
 8000d22:	f856 3025 	ldr.w	r3, [r6, r5, lsl #2]
 8000d26:	4798      	blx	r3
 8000d28:	3501      	adds	r5, #1
 8000d2a:	e7f2      	b.n	8000d12 <__libc_init_array+0x1e>
 8000d2c:	08000d60 	stmdaeq	r0, {r5, r6, r8, sl, fp}
 8000d30:	08000d60 	stmdaeq	r0, {r5, r6, r8, sl, fp}
 8000d34:	08000d60 	stmdaeq	r0, {r5, r6, r8, sl, fp}
 8000d38:	08000d64 	stmdaeq	r0, {r2, r5, r6, r8, sl, fp}

08000d3c <_init>:
 8000d3c:	b5f8      	push	{r3, r4, r5, r6, r7, lr}
 8000d3e:	bf00      	nop
 8000d40:	bcf8      	pop	{r3, r4, r5, r6, r7}
 8000d42:	bc08      	pop	{r3}
 8000d44:	469e      	mov	lr, r3
 8000d46:	4770      	bx	lr

08000d48 <_fini>:
 8000d48:	b5f8      	push	{r3, r4, r5, r6, r7, lr}
 8000d4a:	bf00      	nop
 8000d4c:	bcf8      	pop	{r3, r4, r5, r6, r7}
 8000d4e:	bc08      	pop	{r3}
 8000d50:	469e      	mov	lr, r3
 8000d52:	4770      	bx	lr
