
Drivers.axf:     file format elf32-littlearm


Disassembly of section .isr_vector:

08000000 <g_pfnVectors>:
 8000000:	20002800 	andcs	r2, r0, r0, lsl #16
 8000004:	08000389 	stmdaeq	r0, {r0, r3, r7, r8, r9}
 8000008:	080003d9 	stmdaeq	r0, {r0, r3, r4, r6, r7, r8, r9}
 800000c:	080003d9 	stmdaeq	r0, {r0, r3, r4, r6, r7, r8, r9}
 8000010:	080003d9 	stmdaeq	r0, {r0, r3, r4, r6, r7, r8, r9}
 8000014:	080003d9 	stmdaeq	r0, {r0, r3, r4, r6, r7, r8, r9}
 8000018:	080003d9 	stmdaeq	r0, {r0, r3, r4, r6, r7, r8, r9}
	...
 800002c:	08000171 	stmdaeq	r0, {r0, r4, r5, r6, r8}
 8000030:	080003d9 	stmdaeq	r0, {r0, r3, r4, r6, r7, r8, r9}
 8000034:	00000000 	andeq	r0, r0, r0
 8000038:	080003d9 	stmdaeq	r0, {r0, r3, r4, r6, r7, r8, r9}
 800003c:	080003d9 	stmdaeq	r0, {r0, r3, r4, r6, r7, r8, r9}
 8000040:	080003d9 	stmdaeq	r0, {r0, r3, r4, r6, r7, r8, r9}
 8000044:	080003d9 	stmdaeq	r0, {r0, r3, r4, r6, r7, r8, r9}
 8000048:	080003d9 	stmdaeq	r0, {r0, r3, r4, r6, r7, r8, r9}
 800004c:	080003d9 	stmdaeq	r0, {r0, r3, r4, r6, r7, r8, r9}
 8000050:	080003d9 	stmdaeq	r0, {r0, r3, r4, r6, r7, r8, r9}
 8000054:	080003d9 	stmdaeq	r0, {r0, r3, r4, r6, r7, r8, r9}
 8000058:	0800077d 	stmdaeq	r0, {r0, r2, r3, r4, r5, r6, r8, r9, sl}
 800005c:	080007a1 	stmdaeq	r0, {r0, r5, r7, r8, r9, sl}
 8000060:	080007c5 	stmdaeq	r0, {r0, r2, r6, r7, r8, r9, sl}
 8000064:	080007e9 	stmdaeq	r0, {r0, r3, r5, r6, r7, r8, r9, sl}
 8000068:	0800080d 	stmdaeq	r0, {r0, r2, r3, fp}
 800006c:	080003d9 	stmdaeq	r0, {r0, r3, r4, r6, r7, r8, r9}
 8000070:	080003d9 	stmdaeq	r0, {r0, r3, r4, r6, r7, r8, r9}
 8000074:	080003d9 	stmdaeq	r0, {r0, r3, r4, r6, r7, r8, r9}
 8000078:	080003d9 	stmdaeq	r0, {r0, r3, r4, r6, r7, r8, r9}
 800007c:	080003d9 	stmdaeq	r0, {r0, r3, r4, r6, r7, r8, r9}
 8000080:	080003d9 	stmdaeq	r0, {r0, r3, r4, r6, r7, r8, r9}
 8000084:	080003d9 	stmdaeq	r0, {r0, r3, r4, r6, r7, r8, r9}
 8000088:	080003d9 	stmdaeq	r0, {r0, r3, r4, r6, r7, r8, r9}
 800008c:	080003d9 	stmdaeq	r0, {r0, r3, r4, r6, r7, r8, r9}
 8000090:	080003d9 	stmdaeq	r0, {r0, r3, r4, r6, r7, r8, r9}
 8000094:	080003d9 	stmdaeq	r0, {r0, r3, r4, r6, r7, r8, r9}
 8000098:	080003d9 	stmdaeq	r0, {r0, r3, r4, r6, r7, r8, r9}
 800009c:	08000831 	stmdaeq	r0, {r0, r4, r5, fp}
 80000a0:	080003d9 	stmdaeq	r0, {r0, r3, r4, r6, r7, r8, r9}
 80000a4:	080003d9 	stmdaeq	r0, {r0, r3, r4, r6, r7, r8, r9}
 80000a8:	080003d9 	stmdaeq	r0, {r0, r3, r4, r6, r7, r8, r9}
 80000ac:	080003d9 	stmdaeq	r0, {r0, r3, r4, r6, r7, r8, r9}
 80000b0:	080003d9 	stmdaeq	r0, {r0, r3, r4, r6, r7, r8, r9}
 80000b4:	080003d9 	stmdaeq	r0, {r0, r3, r4, r6, r7, r8, r9}
 80000b8:	080003d9 	stmdaeq	r0, {r0, r3, r4, r6, r7, r8, r9}
 80000bc:	08000c41 	stmdaeq	r0, {r0, r6, sl, fp}
 80000c0:	08000d25 	stmdaeq	r0, {r0, r2, r5, r8, sl, fp}
 80000c4:	08000d31 	stmdaeq	r0, {r0, r4, r5, r8, sl, fp}
 80000c8:	08000d3d 	stmdaeq	r0, {r0, r2, r3, r4, r5, r8, sl, fp}
 80000cc:	08000d49 	stmdaeq	r0, {r0, r3, r6, r8, sl, fp}
 80000d0:	08000da5 	stmdaeq	r0, {r0, r2, r5, r7, r8, sl, fp}
 80000d4:	08000e01 	stmdaeq	r0, {r0, r9, sl, fp}
 80000d8:	08000e15 	stmdaeq	r0, {r0, r2, r4, r9, sl, fp}
 80000dc:	08000e29 	stmdaeq	r0, {r0, r3, r5, r9, sl, fp}
 80000e0:	080008d9 	stmdaeq	r0, {r0, r3, r4, r6, r7, fp}
 80000e4:	080003d9 	stmdaeq	r0, {r0, r3, r4, r6, r7, r8, r9}
 80000e8:	00000000 	andeq	r0, r0, r0
 80000ec:	080003d9 	stmdaeq	r0, {r0, r3, r4, r6, r7, r8, r9}
 80000f0:	080003d9 	stmdaeq	r0, {r0, r3, r4, r6, r7, r8, r9}
 80000f4:	080003d9 	stmdaeq	r0, {r0, r3, r4, r6, r7, r8, r9}
 80000f8:	080003d9 	stmdaeq	r0, {r0, r3, r4, r6, r7, r8, r9}
 80000fc:	080003d9 	stmdaeq	r0, {r0, r3, r4, r6, r7, r8, r9}
 8000100:	080003d9 	stmdaeq	r0, {r0, r3, r4, r6, r7, r8, r9}
 8000104:	080003d9 	stmdaeq	r0, {r0, r3, r4, r6, r7, r8, r9}
 8000108:	080003d9 	stmdaeq	r0, {r0, r3, r4, r6, r7, r8, r9}
 800010c:	080003d9 	stmdaeq	r0, {r0, r3, r4, r6, r7, r8, r9}
 8000110:	080003d9 	stmdaeq	r0, {r0, r3, r4, r6, r7, r8, r9}
 8000114:	080003d9 	stmdaeq	r0, {r0, r3, r4, r6, r7, r8, r9}
 8000118:	080003d9 	stmdaeq	r0, {r0, r3, r4, r6, r7, r8, r9}
 800011c:	080003d9 	stmdaeq	r0, {r0, r3, r4, r6, r7, r8, r9}
 8000120:	080003d9 	stmdaeq	r0, {r0, r3, r4, r6, r7, r8, r9}
 8000124:	080003d9 	stmdaeq	r0, {r0, r3, r4, r6, r7, r8, r9}
 8000128:	080003d9 	stmdaeq	r0, {r0, r3, r4, r6, r7, r8, r9}
 800012c:	080003d9 	stmdaeq	r0, {r0, r3, r4, r6, r7, r8, r9}

Disassembly of section .text:

08000130 <__do_global_dtors_aux>:
 8000130:	b510      	push	{r4, lr}
 8000132:	4c05      	ldr	r4, [pc, #20]	; (8000148 <__do_global_dtors_aux+0x18>)
 8000134:	7823      	ldrb	r3, [r4, #0]
 8000136:	b933      	cbnz	r3, 8000146 <__do_global_dtors_aux+0x16>
 8000138:	4b04      	ldr	r3, [pc, #16]	; (800014c <__do_global_dtors_aux+0x1c>)
 800013a:	b113      	cbz	r3, 8000142 <__do_global_dtors_aux+0x12>
 800013c:	4804      	ldr	r0, [pc, #16]	; (8000150 <__do_global_dtors_aux+0x20>)
 800013e:	f3af 8000 	nop.w
 8000142:	2301      	movs	r3, #1
 8000144:	7023      	strb	r3, [r4, #0]
 8000146:	bd10      	pop	{r4, pc}
 8000148:	20000004 	andcs	r0, r0, r4
 800014c:	00000000 	andeq	r0, r0, r0
 8000150:	08000e84 	stmdaeq	r0, {r2, r7, r9, sl, fp}

08000154 <frame_dummy>:
 8000154:	b508      	push	{r3, lr}
 8000156:	4b03      	ldr	r3, [pc, #12]	; (8000164 <frame_dummy+0x10>)
 8000158:	b11b      	cbz	r3, 8000162 <frame_dummy+0xe>
 800015a:	4903      	ldr	r1, [pc, #12]	; (8000168 <frame_dummy+0x14>)
 800015c:	4803      	ldr	r0, [pc, #12]	; (800016c <frame_dummy+0x18>)
 800015e:	f3af 8000 	nop.w
 8000162:	bd08      	pop	{r3, pc}
 8000164:	00000000 	andeq	r0, r0, r0
 8000168:	20000008 	andcs	r0, r0, r8
 800016c:	08000e84 	stmdaeq	r0, {r2, r7, r9, sl, fp}

08000170 <SVC_Handler>:
 8000170:	b480      	push	{r7}
 8000172:	af00      	add	r7, sp, #0
 8000174:	f3ef 8314 	mrs	r3, CONTROL
 8000178:	ea4f 0353 	mov.w	r3, r3, lsr #1
 800017c:	ea4f 0343 	mov.w	r3, r3, lsl #1
 8000180:	f383 8814 	msr	CONTROL, r3
 8000184:	bf00      	nop
 8000186:	46bd      	mov	sp, r7
 8000188:	bc80      	pop	{r7}
 800018a:	4770      	bx	lr

0800018c <clock_init>:
 800018c:	b480      	push	{r7}
 800018e:	af00      	add	r7, sp, #0
 8000190:	4b07      	ldr	r3, [pc, #28]	; (80001b0 <clock_init+0x24>)
 8000192:	699b      	ldr	r3, [r3, #24]
 8000194:	4a06      	ldr	r2, [pc, #24]	; (80001b0 <clock_init+0x24>)
 8000196:	f043 0308 	orr.w	r3, r3, #8
 800019a:	6193      	str	r3, [r2, #24]
 800019c:	4b04      	ldr	r3, [pc, #16]	; (80001b0 <clock_init+0x24>)
 800019e:	699b      	ldr	r3, [r3, #24]
 80001a0:	4a03      	ldr	r2, [pc, #12]	; (80001b0 <clock_init+0x24>)
 80001a2:	f043 0301 	orr.w	r3, r3, #1
 80001a6:	6193      	str	r3, [r2, #24]
 80001a8:	bf00      	nop
 80001aa:	46bd      	mov	sp, r7
 80001ac:	bc80      	pop	{r7}
 80001ae:	4770      	bx	lr
 80001b0:	40021000 	andmi	r1, r2, r0

080001b4 <EXTI9_CallBack>:
 80001b4:	b480      	push	{r7}
 80001b6:	af00      	add	r7, sp, #0
 80001b8:	4b0c      	ldr	r3, [pc, #48]	; (80001ec <EXTI9_CallBack+0x38>)
 80001ba:	681b      	ldr	r3, [r3, #0]
 80001bc:	2b00      	cmp	r3, #0
 80001be:	d106      	bne.n	80001ce <EXTI9_CallBack+0x1a>
 80001c0:	4b0b      	ldr	r3, [pc, #44]	; (80001f0 <EXTI9_CallBack+0x3c>)
 80001c2:	2201      	movs	r2, #1
 80001c4:	601a      	str	r2, [r3, #0]
 80001c6:	4b09      	ldr	r3, [pc, #36]	; (80001ec <EXTI9_CallBack+0x38>)
 80001c8:	2201      	movs	r2, #1
 80001ca:	601a      	str	r2, [r3, #0]
 80001cc:	e009      	b.n	80001e2 <EXTI9_CallBack+0x2e>
 80001ce:	4b07      	ldr	r3, [pc, #28]	; (80001ec <EXTI9_CallBack+0x38>)
 80001d0:	681b      	ldr	r3, [r3, #0]
 80001d2:	2b01      	cmp	r3, #1
 80001d4:	d105      	bne.n	80001e2 <EXTI9_CallBack+0x2e>
 80001d6:	4b07      	ldr	r3, [pc, #28]	; (80001f4 <EXTI9_CallBack+0x40>)
 80001d8:	2201      	movs	r2, #1
 80001da:	601a      	str	r2, [r3, #0]
 80001dc:	4b03      	ldr	r3, [pc, #12]	; (80001ec <EXTI9_CallBack+0x38>)
 80001de:	2200      	movs	r2, #0
 80001e0:	601a      	str	r2, [r3, #0]
 80001e2:	bf00      	nop
 80001e4:	46bd      	mov	sp, r7
 80001e6:	bc80      	pop	{r7}
 80001e8:	4770      	bx	lr
 80001ea:	bf00      	nop
 80001ec:	20000028 	andcs	r0, r0, r8, lsr #32
 80001f0:	20000020 	andcs	r0, r0, r0, lsr #32
 80001f4:	20000024 	andcs	r0, r0, r4, lsr #32

080001f8 <TaskA>:
 80001f8:	b480      	push	{r7}
 80001fa:	b085      	sub	sp, #20
 80001fc:	af00      	add	r7, sp, #0
 80001fe:	60f8      	str	r0, [r7, #12]
 8000200:	60b9      	str	r1, [r7, #8]
 8000202:	607a      	str	r2, [r7, #4]
 8000204:	68fa      	ldr	r2, [r7, #12]
 8000206:	68bb      	ldr	r3, [r7, #8]
 8000208:	441a      	add	r2, r3
 800020a:	687b      	ldr	r3, [r7, #4]
 800020c:	4413      	add	r3, r2
 800020e:	4618      	mov	r0, r3
 8000210:	3714      	adds	r7, #20
 8000212:	46bd      	mov	sp, r7
 8000214:	bc80      	pop	{r7}
 8000216:	4770      	bx	lr

08000218 <TaskB>:
 8000218:	b480      	push	{r7}
 800021a:	b085      	sub	sp, #20
 800021c:	af00      	add	r7, sp, #0
 800021e:	60f8      	str	r0, [r7, #12]
 8000220:	60b9      	str	r1, [r7, #8]
 8000222:	607a      	str	r2, [r7, #4]
 8000224:	603b      	str	r3, [r7, #0]
 8000226:	68fa      	ldr	r2, [r7, #12]
 8000228:	68bb      	ldr	r3, [r7, #8]
 800022a:	441a      	add	r2, r3
 800022c:	687b      	ldr	r3, [r7, #4]
 800022e:	4413      	add	r3, r2
 8000230:	4618      	mov	r0, r3
 8000232:	3714      	adds	r7, #20
 8000234:	46bd      	mov	sp, r7
 8000236:	bc80      	pop	{r7}
 8000238:	4770      	bx	lr
	...

0800023c <MainOs>:
 800023c:	b580      	push	{r7, lr}
 800023e:	af00      	add	r7, sp, #0
 8000240:	4b37      	ldr	r3, [pc, #220]	; (8000320 <MainOs+0xe4>)
 8000242:	681b      	ldr	r3, [r3, #0]
 8000244:	f5a3 7300 	sub.w	r3, r3, #512	; 0x200
 8000248:	4a36      	ldr	r2, [pc, #216]	; (8000324 <MainOs+0xe8>)
 800024a:	6013      	str	r3, [r2, #0]
 800024c:	4b35      	ldr	r3, [pc, #212]	; (8000324 <MainOs+0xe8>)
 800024e:	681b      	ldr	r3, [r3, #0]
 8000250:	3b08      	subs	r3, #8
 8000252:	4a35      	ldr	r2, [pc, #212]	; (8000328 <MainOs+0xec>)
 8000254:	6013      	str	r3, [r2, #0]
 8000256:	4b34      	ldr	r3, [pc, #208]	; (8000328 <MainOs+0xec>)
 8000258:	681b      	ldr	r3, [r3, #0]
 800025a:	3b64      	subs	r3, #100	; 0x64
 800025c:	4a33      	ldr	r2, [pc, #204]	; (800032c <MainOs+0xf0>)
 800025e:	6013      	str	r3, [r2, #0]
 8000260:	4b32      	ldr	r3, [pc, #200]	; (800032c <MainOs+0xf0>)
 8000262:	681b      	ldr	r3, [r3, #0]
 8000264:	3b08      	subs	r3, #8
 8000266:	4a32      	ldr	r2, [pc, #200]	; (8000330 <MainOs+0xf4>)
 8000268:	6013      	str	r3, [r2, #0]
 800026a:	4b31      	ldr	r3, [pc, #196]	; (8000330 <MainOs+0xf4>)
 800026c:	681b      	ldr	r3, [r3, #0]
 800026e:	3b64      	subs	r3, #100	; 0x64
 8000270:	4a30      	ldr	r2, [pc, #192]	; (8000334 <MainOs+0xf8>)
 8000272:	6013      	str	r3, [r2, #0]
 8000274:	bf00      	nop
 8000276:	4b30      	ldr	r3, [pc, #192]	; (8000338 <MainOs+0xfc>)
 8000278:	681b      	ldr	r3, [r3, #0]
 800027a:	2b01      	cmp	r3, #1
 800027c:	d125      	bne.n	80002ca <MainOs+0x8e>
 800027e:	4b2a      	ldr	r3, [pc, #168]	; (8000328 <MainOs+0xec>)
 8000280:	681b      	ldr	r3, [r3, #0]
 8000282:	4618      	mov	r0, r3
 8000284:	f380 8809 	msr	PSP, r0
 8000288:	f3ef 8014 	mrs	r0, CONTROL
 800028c:	f04f 0102 	mov.w	r1, #2
 8000290:	ea40 0001 	orr.w	r0, r0, r1
 8000294:	f380 8814 	msr	CONTROL, r0
 8000298:	f3ef 8314 	mrs	r3, CONTROL
 800029c:	f043 0301 	orr.w	r3, r3, #1
 80002a0:	f383 8814 	msr	CONTROL, r3
 80002a4:	2203      	movs	r2, #3
 80002a6:	2102      	movs	r1, #2
 80002a8:	2001      	movs	r0, #1
 80002aa:	f7ff ffa5 	bl	80001f8 <TaskA>
 80002ae:	4603      	mov	r3, r0
 80002b0:	461a      	mov	r2, r3
 80002b2:	4b21      	ldr	r3, [pc, #132]	; (8000338 <MainOs+0xfc>)
 80002b4:	601a      	str	r2, [r3, #0]
 80002b6:	df03      	svc	3
 80002b8:	f3ef 8014 	mrs	r0, CONTROL
 80002bc:	f04f 0105 	mov.w	r1, #5
 80002c0:	ea00 0001 	and.w	r0, r0, r1
 80002c4:	f380 8814 	msr	CONTROL, r0
 80002c8:	e7d4      	b.n	8000274 <MainOs+0x38>
 80002ca:	4b1c      	ldr	r3, [pc, #112]	; (800033c <MainOs+0x100>)
 80002cc:	681b      	ldr	r3, [r3, #0]
 80002ce:	2b01      	cmp	r3, #1
 80002d0:	d1d0      	bne.n	8000274 <MainOs+0x38>
 80002d2:	4b17      	ldr	r3, [pc, #92]	; (8000330 <MainOs+0xf4>)
 80002d4:	681b      	ldr	r3, [r3, #0]
 80002d6:	4618      	mov	r0, r3
 80002d8:	f380 8809 	msr	PSP, r0
 80002dc:	f3ef 8014 	mrs	r0, CONTROL
 80002e0:	f04f 0102 	mov.w	r1, #2
 80002e4:	ea40 0001 	orr.w	r0, r0, r1
 80002e8:	f380 8814 	msr	CONTROL, r0
 80002ec:	f3ef 8314 	mrs	r3, CONTROL
 80002f0:	f043 0301 	orr.w	r3, r3, #1
 80002f4:	f383 8814 	msr	CONTROL, r3
 80002f8:	2304      	movs	r3, #4
 80002fa:	2203      	movs	r2, #3
 80002fc:	2102      	movs	r1, #2
 80002fe:	2001      	movs	r0, #1
 8000300:	f7ff ff8a 	bl	8000218 <TaskB>
 8000304:	4603      	mov	r3, r0
 8000306:	461a      	mov	r2, r3
 8000308:	4b0c      	ldr	r3, [pc, #48]	; (800033c <MainOs+0x100>)
 800030a:	601a      	str	r2, [r3, #0]
 800030c:	df03      	svc	3
 800030e:	f3ef 8014 	mrs	r0, CONTROL
 8000312:	f04f 0105 	mov.w	r1, #5
 8000316:	ea00 0001 	and.w	r0, r0, r1
 800031a:	f380 8814 	msr	CONTROL, r0
 800031e:	e7a9      	b.n	8000274 <MainOs+0x38>
 8000320:	20000000 	andcs	r0, r0, r0
 8000324:	200000bc 	strhcs	r0, [r0], -ip
 8000328:	200000c0 	andcs	r0, r0, r0, asr #1
 800032c:	200000cc 	andcs	r0, r0, ip, asr #1
 8000330:	200000c4 	andcs	r0, r0, r4, asr #1
 8000334:	200000c8 	andcs	r0, r0, r8, asr #1
 8000338:	20000020 	andcs	r0, r0, r0, lsr #32
 800033c:	20000024 	andcs	r0, r0, r4, lsr #32

08000340 <main>:
 8000340:	b580      	push	{r7, lr}
 8000342:	b086      	sub	sp, #24
 8000344:	af00      	add	r7, sp, #0
 8000346:	f7ff ff21 	bl	800018c <clock_init>
 800034a:	4a0c      	ldr	r2, [pc, #48]	; (800037c <main+0x3c>)
 800034c:	1d3b      	adds	r3, r7, #4
 800034e:	ca07      	ldmia	r2, {r0, r1, r2}
 8000350:	e883 0007 	stmia.w	r3, {r0, r1, r2}
 8000354:	2300      	movs	r3, #0
 8000356:	743b      	strb	r3, [r7, #16]
 8000358:	4b09      	ldr	r3, [pc, #36]	; (8000380 <main+0x40>)
 800035a:	617b      	str	r3, [r7, #20]
 800035c:	2300      	movs	r3, #0
 800035e:	747b      	strb	r3, [r7, #17]
 8000360:	1d3b      	adds	r3, r7, #4
 8000362:	4618      	mov	r0, r3
 8000364:	f000 f9fe 	bl	8000764 <MCAL_EXTI_GPIO_Init>
 8000368:	f7ff ff68 	bl	800023c <MainOs>
 800036c:	4b05      	ldr	r3, [pc, #20]	; (8000384 <main+0x44>)
 800036e:	681b      	ldr	r3, [r3, #0]
 8000370:	2b00      	cmp	r3, #0
 8000372:	d0fb      	beq.n	800036c <main+0x2c>
 8000374:	4b03      	ldr	r3, [pc, #12]	; (8000384 <main+0x44>)
 8000376:	2200      	movs	r2, #0
 8000378:	601a      	str	r2, [r3, #0]
 800037a:	e7f7      	b.n	800036c <main+0x2c>
 800037c:	08000e9c 	stmdaeq	r0, {r2, r3, r4, r7, r9, sl, fp}
 8000380:	080001b5 	stmdaeq	r0, {r0, r2, r4, r5, r7, r8}
 8000384:	20000028 	andcs	r0, r0, r8, lsr #32

08000388 <Reset_Handler>:
 8000388:	480d      	ldr	r0, [pc, #52]	; (80003c0 <LoopForever+0x2>)
 800038a:	4685      	mov	sp, r0
 800038c:	f3af 8000 	nop.w
 8000390:	480c      	ldr	r0, [pc, #48]	; (80003c4 <LoopForever+0x6>)
 8000392:	490d      	ldr	r1, [pc, #52]	; (80003c8 <LoopForever+0xa>)
 8000394:	4a0d      	ldr	r2, [pc, #52]	; (80003cc <LoopForever+0xe>)
 8000396:	2300      	movs	r3, #0
 8000398:	e002      	b.n	80003a0 <LoopCopyDataInit>

0800039a <CopyDataInit>:
 800039a:	58d4      	ldr	r4, [r2, r3]
 800039c:	50c4      	str	r4, [r0, r3]
 800039e:	3304      	adds	r3, #4

080003a0 <LoopCopyDataInit>:
 80003a0:	18c4      	adds	r4, r0, r3
 80003a2:	428c      	cmp	r4, r1
 80003a4:	d3f9      	bcc.n	800039a <CopyDataInit>
 80003a6:	4a0a      	ldr	r2, [pc, #40]	; (80003d0 <LoopForever+0x12>)
 80003a8:	4c0a      	ldr	r4, [pc, #40]	; (80003d4 <LoopForever+0x16>)
 80003aa:	2300      	movs	r3, #0
 80003ac:	e001      	b.n	80003b2 <LoopFillZerobss>

080003ae <FillZerobss>:
 80003ae:	6013      	str	r3, [r2, #0]
 80003b0:	3204      	adds	r2, #4

080003b2 <LoopFillZerobss>:
 80003b2:	42a2      	cmp	r2, r4
 80003b4:	d3fb      	bcc.n	80003ae <FillZerobss>
 80003b6:	f000 fd41 	bl	8000e3c <__libc_init_array>
 80003ba:	f7ff ffc1 	bl	8000340 <main>

080003be <LoopForever>:
 80003be:	e7fe      	b.n	80003be <LoopForever>
 80003c0:	20002800 	andcs	r2, r0, r0, lsl #16
 80003c4:	20000000 	andcs	r0, r0, r0
 80003c8:	20000004 	andcs	r0, r0, r4
 80003cc:	08000eb0 	stmdaeq	r0, {r4, r5, r7, r9, sl, fp}
 80003d0:	20000004 	andcs	r0, r0, r4
 80003d4:	200000d0 	ldrdcs	r0, [r0], -r0	; <UNPREDICTABLE>

080003d8 <ADC1_2_IRQHandler>:
 80003d8:	e7fe      	b.n	80003d8 <ADC1_2_IRQHandler>
	...

080003dc <Enable_NVIC>:
 80003dc:	b480      	push	{r7}
 80003de:	b083      	sub	sp, #12
 80003e0:	af00      	add	r7, sp, #0
 80003e2:	4603      	mov	r3, r0
 80003e4:	80fb      	strh	r3, [r7, #6]
 80003e6:	88fb      	ldrh	r3, [r7, #6]
 80003e8:	2b0f      	cmp	r3, #15
 80003ea:	d854      	bhi.n	8000496 <Enable_NVIC+0xba>
 80003ec:	a201      	add	r2, pc, #4	; (adr r2, 80003f4 <Enable_NVIC+0x18>)
 80003ee:	f852 f023 	ldr.w	pc, [r2, r3, lsl #2]
 80003f2:	bf00      	nop
 80003f4:	08000435 	stmdaeq	r0, {r0, r2, r4, r5, sl}
 80003f8:	08000443 	stmdaeq	r0, {r0, r1, r6, sl}
 80003fc:	08000451 	stmdaeq	r0, {r0, r4, r6, sl}
 8000400:	0800045f 	stmdaeq	r0, {r0, r1, r2, r3, r4, r6, sl}
 8000404:	0800046d 	stmdaeq	r0, {r0, r2, r3, r5, r6, sl}
 8000408:	0800047b 	stmdaeq	r0, {r0, r1, r3, r4, r5, r6, sl}
 800040c:	0800047b 	stmdaeq	r0, {r0, r1, r3, r4, r5, r6, sl}
 8000410:	0800047b 	stmdaeq	r0, {r0, r1, r3, r4, r5, r6, sl}
 8000414:	0800047b 	stmdaeq	r0, {r0, r1, r3, r4, r5, r6, sl}
 8000418:	0800047b 	stmdaeq	r0, {r0, r1, r3, r4, r5, r6, sl}
 800041c:	08000489 	stmdaeq	r0, {r0, r3, r7, sl}
 8000420:	08000489 	stmdaeq	r0, {r0, r3, r7, sl}
 8000424:	08000489 	stmdaeq	r0, {r0, r3, r7, sl}
 8000428:	08000489 	stmdaeq	r0, {r0, r3, r7, sl}
 800042c:	08000489 	stmdaeq	r0, {r0, r3, r7, sl}
 8000430:	08000489 	stmdaeq	r0, {r0, r3, r7, sl}
 8000434:	4b1a      	ldr	r3, [pc, #104]	; (80004a0 <Enable_NVIC+0xc4>)
 8000436:	681b      	ldr	r3, [r3, #0]
 8000438:	4a19      	ldr	r2, [pc, #100]	; (80004a0 <Enable_NVIC+0xc4>)
 800043a:	f043 0340 	orr.w	r3, r3, #64	; 0x40
 800043e:	6013      	str	r3, [r2, #0]
 8000440:	e029      	b.n	8000496 <Enable_NVIC+0xba>
 8000442:	4b17      	ldr	r3, [pc, #92]	; (80004a0 <Enable_NVIC+0xc4>)
 8000444:	681b      	ldr	r3, [r3, #0]
 8000446:	4a16      	ldr	r2, [pc, #88]	; (80004a0 <Enable_NVIC+0xc4>)
 8000448:	f043 0380 	orr.w	r3, r3, #128	; 0x80
 800044c:	6013      	str	r3, [r2, #0]
 800044e:	e022      	b.n	8000496 <Enable_NVIC+0xba>
 8000450:	4b13      	ldr	r3, [pc, #76]	; (80004a0 <Enable_NVIC+0xc4>)
 8000452:	681b      	ldr	r3, [r3, #0]
 8000454:	4a12      	ldr	r2, [pc, #72]	; (80004a0 <Enable_NVIC+0xc4>)
 8000456:	f443 7380 	orr.w	r3, r3, #256	; 0x100
 800045a:	6013      	str	r3, [r2, #0]
 800045c:	e01b      	b.n	8000496 <Enable_NVIC+0xba>
 800045e:	4b10      	ldr	r3, [pc, #64]	; (80004a0 <Enable_NVIC+0xc4>)
 8000460:	681b      	ldr	r3, [r3, #0]
 8000462:	4a0f      	ldr	r2, [pc, #60]	; (80004a0 <Enable_NVIC+0xc4>)
 8000464:	f443 7300 	orr.w	r3, r3, #512	; 0x200
 8000468:	6013      	str	r3, [r2, #0]
 800046a:	e014      	b.n	8000496 <Enable_NVIC+0xba>
 800046c:	4b0c      	ldr	r3, [pc, #48]	; (80004a0 <Enable_NVIC+0xc4>)
 800046e:	681b      	ldr	r3, [r3, #0]
 8000470:	4a0b      	ldr	r2, [pc, #44]	; (80004a0 <Enable_NVIC+0xc4>)
 8000472:	f443 6380 	orr.w	r3, r3, #1024	; 0x400
 8000476:	6013      	str	r3, [r2, #0]
 8000478:	e00d      	b.n	8000496 <Enable_NVIC+0xba>
 800047a:	4b09      	ldr	r3, [pc, #36]	; (80004a0 <Enable_NVIC+0xc4>)
 800047c:	681b      	ldr	r3, [r3, #0]
 800047e:	4a08      	ldr	r2, [pc, #32]	; (80004a0 <Enable_NVIC+0xc4>)
 8000480:	f443 0300 	orr.w	r3, r3, #8388608	; 0x800000
 8000484:	6013      	str	r3, [r2, #0]
 8000486:	e006      	b.n	8000496 <Enable_NVIC+0xba>
 8000488:	4b06      	ldr	r3, [pc, #24]	; (80004a4 <Enable_NVIC+0xc8>)
 800048a:	681b      	ldr	r3, [r3, #0]
 800048c:	4a05      	ldr	r2, [pc, #20]	; (80004a4 <Enable_NVIC+0xc8>)
 800048e:	f443 7380 	orr.w	r3, r3, #256	; 0x100
 8000492:	6013      	str	r3, [r2, #0]
 8000494:	bf00      	nop
 8000496:	bf00      	nop
 8000498:	370c      	adds	r7, #12
 800049a:	46bd      	mov	sp, r7
 800049c:	bc80      	pop	{r7}
 800049e:	4770      	bx	lr
 80004a0:	e000e100 	and	lr, r0, r0, lsl #2
 80004a4:	e000e104 	and	lr, r0, r4, lsl #2

080004a8 <Disable_NVIC>:
 80004a8:	b480      	push	{r7}
 80004aa:	b083      	sub	sp, #12
 80004ac:	af00      	add	r7, sp, #0
 80004ae:	4603      	mov	r3, r0
 80004b0:	80fb      	strh	r3, [r7, #6]
 80004b2:	88fb      	ldrh	r3, [r7, #6]
 80004b4:	2b0f      	cmp	r3, #15
 80004b6:	d854      	bhi.n	8000562 <Disable_NVIC+0xba>
 80004b8:	a201      	add	r2, pc, #4	; (adr r2, 80004c0 <Disable_NVIC+0x18>)
 80004ba:	f852 f023 	ldr.w	pc, [r2, r3, lsl #2]
 80004be:	bf00      	nop
 80004c0:	08000501 	stmdaeq	r0, {r0, r8, sl}
 80004c4:	0800050f 	stmdaeq	r0, {r0, r1, r2, r3, r8, sl}
 80004c8:	0800051d 	stmdaeq	r0, {r0, r2, r3, r4, r8, sl}
 80004cc:	0800052b 	stmdaeq	r0, {r0, r1, r3, r5, r8, sl}
 80004d0:	08000539 	stmdaeq	r0, {r0, r3, r4, r5, r8, sl}
 80004d4:	08000547 	stmdaeq	r0, {r0, r1, r2, r6, r8, sl}
 80004d8:	08000547 	stmdaeq	r0, {r0, r1, r2, r6, r8, sl}
 80004dc:	08000547 	stmdaeq	r0, {r0, r1, r2, r6, r8, sl}
 80004e0:	08000547 	stmdaeq	r0, {r0, r1, r2, r6, r8, sl}
 80004e4:	08000547 	stmdaeq	r0, {r0, r1, r2, r6, r8, sl}
 80004e8:	08000555 	stmdaeq	r0, {r0, r2, r4, r6, r8, sl}
 80004ec:	08000555 	stmdaeq	r0, {r0, r2, r4, r6, r8, sl}
 80004f0:	08000555 	stmdaeq	r0, {r0, r2, r4, r6, r8, sl}
 80004f4:	08000555 	stmdaeq	r0, {r0, r2, r4, r6, r8, sl}
 80004f8:	08000555 	stmdaeq	r0, {r0, r2, r4, r6, r8, sl}
 80004fc:	08000555 	stmdaeq	r0, {r0, r2, r4, r6, r8, sl}
 8000500:	4b1a      	ldr	r3, [pc, #104]	; (800056c <Disable_NVIC+0xc4>)
 8000502:	681b      	ldr	r3, [r3, #0]
 8000504:	4a19      	ldr	r2, [pc, #100]	; (800056c <Disable_NVIC+0xc4>)
 8000506:	f043 0340 	orr.w	r3, r3, #64	; 0x40
 800050a:	6013      	str	r3, [r2, #0]
 800050c:	e029      	b.n	8000562 <Disable_NVIC+0xba>
 800050e:	4b17      	ldr	r3, [pc, #92]	; (800056c <Disable_NVIC+0xc4>)
 8000510:	681b      	ldr	r3, [r3, #0]
 8000512:	4a16      	ldr	r2, [pc, #88]	; (800056c <Disable_NVIC+0xc4>)
 8000514:	f043 0380 	orr.w	r3, r3, #128	; 0x80
 8000518:	6013      	str	r3, [r2, #0]
 800051a:	e022      	b.n	8000562 <Disable_NVIC+0xba>
 800051c:	4b13      	ldr	r3, [pc, #76]	; (800056c <Disable_NVIC+0xc4>)
 800051e:	681b      	ldr	r3, [r3, #0]
 8000520:	4a12      	ldr	r2, [pc, #72]	; (800056c <Disable_NVIC+0xc4>)
 8000522:	f443 7380 	orr.w	r3, r3, #256	; 0x100
 8000526:	6013      	str	r3, [r2, #0]
 8000528:	e01b      	b.n	8000562 <Disable_NVIC+0xba>
 800052a:	4b10      	ldr	r3, [pc, #64]	; (800056c <Disable_NVIC+0xc4>)
 800052c:	681b      	ldr	r3, [r3, #0]
 800052e:	4a0f      	ldr	r2, [pc, #60]	; (800056c <Disable_NVIC+0xc4>)
 8000530:	f443 7300 	orr.w	r3, r3, #512	; 0x200
 8000534:	6013      	str	r3, [r2, #0]
 8000536:	e014      	b.n	8000562 <Disable_NVIC+0xba>
 8000538:	4b0c      	ldr	r3, [pc, #48]	; (800056c <Disable_NVIC+0xc4>)
 800053a:	681b      	ldr	r3, [r3, #0]
 800053c:	4a0b      	ldr	r2, [pc, #44]	; (800056c <Disable_NVIC+0xc4>)
 800053e:	f443 6380 	orr.w	r3, r3, #1024	; 0x400
 8000542:	6013      	str	r3, [r2, #0]
 8000544:	e00d      	b.n	8000562 <Disable_NVIC+0xba>
 8000546:	4b09      	ldr	r3, [pc, #36]	; (800056c <Disable_NVIC+0xc4>)
 8000548:	681b      	ldr	r3, [r3, #0]
 800054a:	4a08      	ldr	r2, [pc, #32]	; (800056c <Disable_NVIC+0xc4>)
 800054c:	f443 0300 	orr.w	r3, r3, #8388608	; 0x800000
 8000550:	6013      	str	r3, [r2, #0]
 8000552:	e006      	b.n	8000562 <Disable_NVIC+0xba>
 8000554:	4b06      	ldr	r3, [pc, #24]	; (8000570 <Disable_NVIC+0xc8>)
 8000556:	681b      	ldr	r3, [r3, #0]
 8000558:	4a05      	ldr	r2, [pc, #20]	; (8000570 <Disable_NVIC+0xc8>)
 800055a:	f443 7380 	orr.w	r3, r3, #256	; 0x100
 800055e:	6013      	str	r3, [r2, #0]
 8000560:	bf00      	nop
 8000562:	bf00      	nop
 8000564:	370c      	adds	r7, #12
 8000566:	46bd      	mov	sp, r7
 8000568:	bc80      	pop	{r7}
 800056a:	4770      	bx	lr
 800056c:	e000e180 	and	lr, r0, r0, lsl #3
 8000570:	e000e184 	and	lr, r0, r4, lsl #3

08000574 <Update_EXTI>:
 8000574:	b580      	push	{r7, lr}
 8000576:	b084      	sub	sp, #16
 8000578:	af00      	add	r7, sp, #0
 800057a:	6078      	str	r0, [r7, #4]
 800057c:	687b      	ldr	r3, [r7, #4]
 800057e:	891b      	ldrh	r3, [r3, #8]
 8000580:	813b      	strh	r3, [r7, #8]
 8000582:	2301      	movs	r3, #1
 8000584:	72bb      	strb	r3, [r7, #10]
 8000586:	687b      	ldr	r3, [r7, #4]
 8000588:	685b      	ldr	r3, [r3, #4]
 800058a:	f107 0208 	add.w	r2, r7, #8
 800058e:	4611      	mov	r1, r2
 8000590:	4618      	mov	r0, r3
 8000592:	f000 fa66 	bl	8000a62 <MCAL_GPIO_Init>
 8000596:	687b      	ldr	r3, [r7, #4]
 8000598:	881b      	ldrh	r3, [r3, #0]
 800059a:	089b      	lsrs	r3, r3, #2
 800059c:	b29b      	uxth	r3, r3
 800059e:	73fb      	strb	r3, [r7, #15]
 80005a0:	687b      	ldr	r3, [r7, #4]
 80005a2:	881b      	ldrh	r3, [r3, #0]
 80005a4:	b2db      	uxtb	r3, r3
 80005a6:	f003 0303 	and.w	r3, r3, #3
 80005aa:	b2db      	uxtb	r3, r3
 80005ac:	009b      	lsls	r3, r3, #2
 80005ae:	73bb      	strb	r3, [r7, #14]
 80005b0:	4a64      	ldr	r2, [pc, #400]	; (8000744 <Update_EXTI+0x1d0>)
 80005b2:	7bfb      	ldrb	r3, [r7, #15]
 80005b4:	3302      	adds	r3, #2
 80005b6:	f852 2023 	ldr.w	r2, [r2, r3, lsl #2]
 80005ba:	7bbb      	ldrb	r3, [r7, #14]
 80005bc:	210f      	movs	r1, #15
 80005be:	fa01 f303 	lsl.w	r3, r1, r3
 80005c2:	43db      	mvns	r3, r3
 80005c4:	4618      	mov	r0, r3
 80005c6:	495f      	ldr	r1, [pc, #380]	; (8000744 <Update_EXTI+0x1d0>)
 80005c8:	7bfb      	ldrb	r3, [r7, #15]
 80005ca:	4002      	ands	r2, r0
 80005cc:	3302      	adds	r3, #2
 80005ce:	f841 2023 	str.w	r2, [r1, r3, lsl #2]
 80005d2:	4a5c      	ldr	r2, [pc, #368]	; (8000744 <Update_EXTI+0x1d0>)
 80005d4:	7bfb      	ldrb	r3, [r7, #15]
 80005d6:	3302      	adds	r3, #2
 80005d8:	f852 2023 	ldr.w	r2, [r2, r3, lsl #2]
 80005dc:	687b      	ldr	r3, [r7, #4]
 80005de:	685b      	ldr	r3, [r3, #4]
 80005e0:	4959      	ldr	r1, [pc, #356]	; (8000748 <Update_EXTI+0x1d4>)
 80005e2:	428b      	cmp	r3, r1
 80005e4:	d016      	beq.n	8000614 <Update_EXTI+0xa0>
 80005e6:	687b      	ldr	r3, [r7, #4]
 80005e8:	685b      	ldr	r3, [r3, #4]
 80005ea:	4958      	ldr	r1, [pc, #352]	; (800074c <Update_EXTI+0x1d8>)
 80005ec:	428b      	cmp	r3, r1
 80005ee:	d00f      	beq.n	8000610 <Update_EXTI+0x9c>
 80005f0:	687b      	ldr	r3, [r7, #4]
 80005f2:	685b      	ldr	r3, [r3, #4]
 80005f4:	4956      	ldr	r1, [pc, #344]	; (8000750 <Update_EXTI+0x1dc>)
 80005f6:	428b      	cmp	r3, r1
 80005f8:	d008      	beq.n	800060c <Update_EXTI+0x98>
 80005fa:	687b      	ldr	r3, [r7, #4]
 80005fc:	685b      	ldr	r3, [r3, #4]
 80005fe:	4955      	ldr	r1, [pc, #340]	; (8000754 <Update_EXTI+0x1e0>)
 8000600:	428b      	cmp	r3, r1
 8000602:	d101      	bne.n	8000608 <Update_EXTI+0x94>
 8000604:	2303      	movs	r3, #3
 8000606:	e006      	b.n	8000616 <Update_EXTI+0xa2>
 8000608:	2300      	movs	r3, #0
 800060a:	e004      	b.n	8000616 <Update_EXTI+0xa2>
 800060c:	2302      	movs	r3, #2
 800060e:	e002      	b.n	8000616 <Update_EXTI+0xa2>
 8000610:	2301      	movs	r3, #1
 8000612:	e000      	b.n	8000616 <Update_EXTI+0xa2>
 8000614:	2300      	movs	r3, #0
 8000616:	7bb9      	ldrb	r1, [r7, #14]
 8000618:	408b      	lsls	r3, r1
 800061a:	4618      	mov	r0, r3
 800061c:	4949      	ldr	r1, [pc, #292]	; (8000744 <Update_EXTI+0x1d0>)
 800061e:	7bfb      	ldrb	r3, [r7, #15]
 8000620:	4302      	orrs	r2, r0
 8000622:	3302      	adds	r3, #2
 8000624:	f841 2023 	str.w	r2, [r1, r3, lsl #2]
 8000628:	4b4b      	ldr	r3, [pc, #300]	; (8000758 <Update_EXTI+0x1e4>)
 800062a:	689b      	ldr	r3, [r3, #8]
 800062c:	687a      	ldr	r2, [r7, #4]
 800062e:	8812      	ldrh	r2, [r2, #0]
 8000630:	4611      	mov	r1, r2
 8000632:	2201      	movs	r2, #1
 8000634:	408a      	lsls	r2, r1
 8000636:	43d2      	mvns	r2, r2
 8000638:	4611      	mov	r1, r2
 800063a:	4a47      	ldr	r2, [pc, #284]	; (8000758 <Update_EXTI+0x1e4>)
 800063c:	400b      	ands	r3, r1
 800063e:	6093      	str	r3, [r2, #8]
 8000640:	4b45      	ldr	r3, [pc, #276]	; (8000758 <Update_EXTI+0x1e4>)
 8000642:	68db      	ldr	r3, [r3, #12]
 8000644:	687a      	ldr	r2, [r7, #4]
 8000646:	8812      	ldrh	r2, [r2, #0]
 8000648:	4611      	mov	r1, r2
 800064a:	2201      	movs	r2, #1
 800064c:	408a      	lsls	r2, r1
 800064e:	43d2      	mvns	r2, r2
 8000650:	4611      	mov	r1, r2
 8000652:	4a41      	ldr	r2, [pc, #260]	; (8000758 <Update_EXTI+0x1e4>)
 8000654:	400b      	ands	r3, r1
 8000656:	60d3      	str	r3, [r2, #12]
 8000658:	687b      	ldr	r3, [r7, #4]
 800065a:	7b1b      	ldrb	r3, [r3, #12]
 800065c:	2b00      	cmp	r3, #0
 800065e:	d10b      	bne.n	8000678 <Update_EXTI+0x104>
 8000660:	4b3d      	ldr	r3, [pc, #244]	; (8000758 <Update_EXTI+0x1e4>)
 8000662:	689b      	ldr	r3, [r3, #8]
 8000664:	687a      	ldr	r2, [r7, #4]
 8000666:	8812      	ldrh	r2, [r2, #0]
 8000668:	4611      	mov	r1, r2
 800066a:	2201      	movs	r2, #1
 800066c:	408a      	lsls	r2, r1
 800066e:	4611      	mov	r1, r2
 8000670:	4a39      	ldr	r2, [pc, #228]	; (8000758 <Update_EXTI+0x1e4>)
 8000672:	430b      	orrs	r3, r1
 8000674:	6093      	str	r3, [r2, #8]
 8000676:	e029      	b.n	80006cc <Update_EXTI+0x158>
 8000678:	687b      	ldr	r3, [r7, #4]
 800067a:	7b1b      	ldrb	r3, [r3, #12]
 800067c:	2b01      	cmp	r3, #1
 800067e:	d10b      	bne.n	8000698 <Update_EXTI+0x124>
 8000680:	4b35      	ldr	r3, [pc, #212]	; (8000758 <Update_EXTI+0x1e4>)
 8000682:	68db      	ldr	r3, [r3, #12]
 8000684:	687a      	ldr	r2, [r7, #4]
 8000686:	8812      	ldrh	r2, [r2, #0]
 8000688:	4611      	mov	r1, r2
 800068a:	2201      	movs	r2, #1
 800068c:	408a      	lsls	r2, r1
 800068e:	4611      	mov	r1, r2
 8000690:	4a31      	ldr	r2, [pc, #196]	; (8000758 <Update_EXTI+0x1e4>)
 8000692:	430b      	orrs	r3, r1
 8000694:	60d3      	str	r3, [r2, #12]
 8000696:	e019      	b.n	80006cc <Update_EXTI+0x158>
 8000698:	687b      	ldr	r3, [r7, #4]
 800069a:	7b1b      	ldrb	r3, [r3, #12]
 800069c:	2b02      	cmp	r3, #2
 800069e:	d115      	bne.n	80006cc <Update_EXTI+0x158>
 80006a0:	4b2d      	ldr	r3, [pc, #180]	; (8000758 <Update_EXTI+0x1e4>)
 80006a2:	689b      	ldr	r3, [r3, #8]
 80006a4:	687a      	ldr	r2, [r7, #4]
 80006a6:	8812      	ldrh	r2, [r2, #0]
 80006a8:	4611      	mov	r1, r2
 80006aa:	2201      	movs	r2, #1
 80006ac:	408a      	lsls	r2, r1
 80006ae:	4611      	mov	r1, r2
 80006b0:	4a29      	ldr	r2, [pc, #164]	; (8000758 <Update_EXTI+0x1e4>)
 80006b2:	430b      	orrs	r3, r1
 80006b4:	6093      	str	r3, [r2, #8]
 80006b6:	4b28      	ldr	r3, [pc, #160]	; (8000758 <Update_EXTI+0x1e4>)
 80006b8:	68db      	ldr	r3, [r3, #12]
 80006ba:	687a      	ldr	r2, [r7, #4]
 80006bc:	8812      	ldrh	r2, [r2, #0]
 80006be:	4611      	mov	r1, r2
 80006c0:	2201      	movs	r2, #1
 80006c2:	408a      	lsls	r2, r1
 80006c4:	4611      	mov	r1, r2
 80006c6:	4a24      	ldr	r2, [pc, #144]	; (8000758 <Update_EXTI+0x1e4>)
 80006c8:	430b      	orrs	r3, r1
 80006ca:	60d3      	str	r3, [r2, #12]
 80006cc:	687b      	ldr	r3, [r7, #4]
 80006ce:	881b      	ldrh	r3, [r3, #0]
 80006d0:	4619      	mov	r1, r3
 80006d2:	687b      	ldr	r3, [r7, #4]
 80006d4:	691b      	ldr	r3, [r3, #16]
 80006d6:	4a21      	ldr	r2, [pc, #132]	; (800075c <Update_EXTI+0x1e8>)
 80006d8:	f842 3021 	str.w	r3, [r2, r1, lsl #2]
 80006dc:	687b      	ldr	r3, [r7, #4]
 80006de:	7b5b      	ldrb	r3, [r3, #13]
 80006e0:	2b00      	cmp	r3, #0
 80006e2:	d116      	bne.n	8000712 <Update_EXTI+0x19e>
 80006e4:	4b1c      	ldr	r3, [pc, #112]	; (8000758 <Update_EXTI+0x1e4>)
 80006e6:	681b      	ldr	r3, [r3, #0]
 80006e8:	687a      	ldr	r2, [r7, #4]
 80006ea:	8812      	ldrh	r2, [r2, #0]
 80006ec:	4611      	mov	r1, r2
 80006ee:	2201      	movs	r2, #1
 80006f0:	408a      	lsls	r2, r1
 80006f2:	4611      	mov	r1, r2
 80006f4:	4a18      	ldr	r2, [pc, #96]	; (8000758 <Update_EXTI+0x1e4>)
 80006f6:	430b      	orrs	r3, r1
 80006f8:	6013      	str	r3, [r2, #0]
 80006fa:	687b      	ldr	r3, [r7, #4]
 80006fc:	881b      	ldrh	r3, [r3, #0]
 80006fe:	4618      	mov	r0, r3
 8000700:	f7ff fe6c 	bl	80003dc <Enable_NVIC>
 8000704:	4b16      	ldr	r3, [pc, #88]	; (8000760 <Update_EXTI+0x1ec>)
 8000706:	681b      	ldr	r3, [r3, #0]
 8000708:	4a15      	ldr	r2, [pc, #84]	; (8000760 <Update_EXTI+0x1ec>)
 800070a:	f443 0300 	orr.w	r3, r3, #8388608	; 0x800000
 800070e:	6013      	str	r3, [r2, #0]
 8000710:	e014      	b.n	800073c <Update_EXTI+0x1c8>
 8000712:	687b      	ldr	r3, [r7, #4]
 8000714:	7b5b      	ldrb	r3, [r3, #13]
 8000716:	2b01      	cmp	r3, #1
 8000718:	d110      	bne.n	800073c <Update_EXTI+0x1c8>
 800071a:	4b0f      	ldr	r3, [pc, #60]	; (8000758 <Update_EXTI+0x1e4>)
 800071c:	681b      	ldr	r3, [r3, #0]
 800071e:	687a      	ldr	r2, [r7, #4]
 8000720:	8812      	ldrh	r2, [r2, #0]
 8000722:	4611      	mov	r1, r2
 8000724:	2201      	movs	r2, #1
 8000726:	408a      	lsls	r2, r1
 8000728:	43d2      	mvns	r2, r2
 800072a:	4611      	mov	r1, r2
 800072c:	4a0a      	ldr	r2, [pc, #40]	; (8000758 <Update_EXTI+0x1e4>)
 800072e:	400b      	ands	r3, r1
 8000730:	6013      	str	r3, [r2, #0]
 8000732:	687b      	ldr	r3, [r7, #4]
 8000734:	881b      	ldrh	r3, [r3, #0]
 8000736:	4618      	mov	r0, r3
 8000738:	f7ff feb6 	bl	80004a8 <Disable_NVIC>
 800073c:	bf00      	nop
 800073e:	3710      	adds	r7, #16
 8000740:	46bd      	mov	sp, r7
 8000742:	bd80      	pop	{r7, pc}
 8000744:	40010000 	andmi	r0, r1, r0
 8000748:	40010800 	andmi	r0, r1, r0, lsl #16
 800074c:	40010c00 	andmi	r0, r1, r0, lsl #24
 8000750:	40011000 	andmi	r1, r1, r0
 8000754:	40011400 	andmi	r1, r1, r0, lsl #8
 8000758:	40010400 	andmi	r0, r1, r0, lsl #8
 800075c:	2000002c 	andcs	r0, r0, ip, lsr #32
 8000760:	e000e100 	and	lr, r0, r0, lsl #2

08000764 <MCAL_EXTI_GPIO_Init>:
 8000764:	b580      	push	{r7, lr}
 8000766:	b082      	sub	sp, #8
 8000768:	af00      	add	r7, sp, #0
 800076a:	6078      	str	r0, [r7, #4]
 800076c:	6878      	ldr	r0, [r7, #4]
 800076e:	f7ff ff01 	bl	8000574 <Update_EXTI>
 8000772:	bf00      	nop
 8000774:	3708      	adds	r7, #8
 8000776:	46bd      	mov	sp, r7
 8000778:	bd80      	pop	{r7, pc}
	...

0800077c <EXTI0_IRQHandler>:
 800077c:	b580      	push	{r7, lr}
 800077e:	af00      	add	r7, sp, #0
 8000780:	4b05      	ldr	r3, [pc, #20]	; (8000798 <EXTI0_IRQHandler+0x1c>)
 8000782:	695b      	ldr	r3, [r3, #20]
 8000784:	4a04      	ldr	r2, [pc, #16]	; (8000798 <EXTI0_IRQHandler+0x1c>)
 8000786:	f043 0301 	orr.w	r3, r3, #1
 800078a:	6153      	str	r3, [r2, #20]
 800078c:	4b03      	ldr	r3, [pc, #12]	; (800079c <EXTI0_IRQHandler+0x20>)
 800078e:	681b      	ldr	r3, [r3, #0]
 8000790:	4798      	blx	r3
 8000792:	bf00      	nop
 8000794:	bd80      	pop	{r7, pc}
 8000796:	bf00      	nop
 8000798:	40010400 	andmi	r0, r1, r0, lsl #8
 800079c:	2000002c 	andcs	r0, r0, ip, lsr #32

080007a0 <EXTI1_IRQHandler>:
 80007a0:	b580      	push	{r7, lr}
 80007a2:	af00      	add	r7, sp, #0
 80007a4:	4b05      	ldr	r3, [pc, #20]	; (80007bc <EXTI1_IRQHandler+0x1c>)
 80007a6:	695b      	ldr	r3, [r3, #20]
 80007a8:	4a04      	ldr	r2, [pc, #16]	; (80007bc <EXTI1_IRQHandler+0x1c>)
 80007aa:	f043 0302 	orr.w	r3, r3, #2
 80007ae:	6153      	str	r3, [r2, #20]
 80007b0:	4b03      	ldr	r3, [pc, #12]	; (80007c0 <EXTI1_IRQHandler+0x20>)
 80007b2:	685b      	ldr	r3, [r3, #4]
 80007b4:	4798      	blx	r3
 80007b6:	bf00      	nop
 80007b8:	bd80      	pop	{r7, pc}
 80007ba:	bf00      	nop
 80007bc:	40010400 	andmi	r0, r1, r0, lsl #8
 80007c0:	2000002c 	andcs	r0, r0, ip, lsr #32

080007c4 <EXTI2_IRQHandler>:
 80007c4:	b580      	push	{r7, lr}
 80007c6:	af00      	add	r7, sp, #0
 80007c8:	4b05      	ldr	r3, [pc, #20]	; (80007e0 <EXTI2_IRQHandler+0x1c>)
 80007ca:	695b      	ldr	r3, [r3, #20]
 80007cc:	4a04      	ldr	r2, [pc, #16]	; (80007e0 <EXTI2_IRQHandler+0x1c>)
 80007ce:	f043 0304 	orr.w	r3, r3, #4
 80007d2:	6153      	str	r3, [r2, #20]
 80007d4:	4b03      	ldr	r3, [pc, #12]	; (80007e4 <EXTI2_IRQHandler+0x20>)
 80007d6:	689b      	ldr	r3, [r3, #8]
 80007d8:	4798      	blx	r3
 80007da:	bf00      	nop
 80007dc:	bd80      	pop	{r7, pc}
 80007de:	bf00      	nop
 80007e0:	40010400 	andmi	r0, r1, r0, lsl #8
 80007e4:	2000002c 	andcs	r0, r0, ip, lsr #32

080007e8 <EXTI3_IRQHandler>:
 80007e8:	b580      	push	{r7, lr}
 80007ea:	af00      	add	r7, sp, #0
 80007ec:	4b05      	ldr	r3, [pc, #20]	; (8000804 <EXTI3_IRQHandler+0x1c>)
 80007ee:	695b      	ldr	r3, [r3, #20]
 80007f0:	4a04      	ldr	r2, [pc, #16]	; (8000804 <EXTI3_IRQHandler+0x1c>)
 80007f2:	f043 0308 	orr.w	r3, r3, #8
 80007f6:	6153      	str	r3, [r2, #20]
 80007f8:	4b03      	ldr	r3, [pc, #12]	; (8000808 <EXTI3_IRQHandler+0x20>)
 80007fa:	68db      	ldr	r3, [r3, #12]
 80007fc:	4798      	blx	r3
 80007fe:	bf00      	nop
 8000800:	bd80      	pop	{r7, pc}
 8000802:	bf00      	nop
 8000804:	40010400 	andmi	r0, r1, r0, lsl #8
 8000808:	2000002c 	andcs	r0, r0, ip, lsr #32

0800080c <EXTI4_IRQHandler>:
 800080c:	b580      	push	{r7, lr}
 800080e:	af00      	add	r7, sp, #0
 8000810:	4b05      	ldr	r3, [pc, #20]	; (8000828 <EXTI4_IRQHandler+0x1c>)
 8000812:	695b      	ldr	r3, [r3, #20]
 8000814:	4a04      	ldr	r2, [pc, #16]	; (8000828 <EXTI4_IRQHandler+0x1c>)
 8000816:	f043 0310 	orr.w	r3, r3, #16
 800081a:	6153      	str	r3, [r2, #20]
 800081c:	4b03      	ldr	r3, [pc, #12]	; (800082c <EXTI4_IRQHandler+0x20>)
 800081e:	691b      	ldr	r3, [r3, #16]
 8000820:	4798      	blx	r3
 8000822:	bf00      	nop
 8000824:	bd80      	pop	{r7, pc}
 8000826:	bf00      	nop
 8000828:	40010400 	andmi	r0, r1, r0, lsl #8
 800082c:	2000002c 	andcs	r0, r0, ip, lsr #32

08000830 <EXTI9_5_IRQHandler>:
 8000830:	b580      	push	{r7, lr}
 8000832:	af00      	add	r7, sp, #0
 8000834:	4b26      	ldr	r3, [pc, #152]	; (80008d0 <EXTI9_5_IRQHandler+0xa0>)
 8000836:	695b      	ldr	r3, [r3, #20]
 8000838:	f003 0320 	and.w	r3, r3, #32
 800083c:	2b00      	cmp	r3, #0
 800083e:	d008      	beq.n	8000852 <EXTI9_5_IRQHandler+0x22>
 8000840:	4b23      	ldr	r3, [pc, #140]	; (80008d0 <EXTI9_5_IRQHandler+0xa0>)
 8000842:	695b      	ldr	r3, [r3, #20]
 8000844:	4a22      	ldr	r2, [pc, #136]	; (80008d0 <EXTI9_5_IRQHandler+0xa0>)
 8000846:	f043 0320 	orr.w	r3, r3, #32
 800084a:	6153      	str	r3, [r2, #20]
 800084c:	4b21      	ldr	r3, [pc, #132]	; (80008d4 <EXTI9_5_IRQHandler+0xa4>)
 800084e:	695b      	ldr	r3, [r3, #20]
 8000850:	4798      	blx	r3
 8000852:	4b1f      	ldr	r3, [pc, #124]	; (80008d0 <EXTI9_5_IRQHandler+0xa0>)
 8000854:	695b      	ldr	r3, [r3, #20]
 8000856:	f003 0340 	and.w	r3, r3, #64	; 0x40
 800085a:	2b00      	cmp	r3, #0
 800085c:	d008      	beq.n	8000870 <EXTI9_5_IRQHandler+0x40>
 800085e:	4b1c      	ldr	r3, [pc, #112]	; (80008d0 <EXTI9_5_IRQHandler+0xa0>)
 8000860:	695b      	ldr	r3, [r3, #20]
 8000862:	4a1b      	ldr	r2, [pc, #108]	; (80008d0 <EXTI9_5_IRQHandler+0xa0>)
 8000864:	f043 0340 	orr.w	r3, r3, #64	; 0x40
 8000868:	6153      	str	r3, [r2, #20]
 800086a:	4b1a      	ldr	r3, [pc, #104]	; (80008d4 <EXTI9_5_IRQHandler+0xa4>)
 800086c:	699b      	ldr	r3, [r3, #24]
 800086e:	4798      	blx	r3
 8000870:	4b17      	ldr	r3, [pc, #92]	; (80008d0 <EXTI9_5_IRQHandler+0xa0>)
 8000872:	695b      	ldr	r3, [r3, #20]
 8000874:	f003 0380 	and.w	r3, r3, #128	; 0x80
 8000878:	2b00      	cmp	r3, #0
 800087a:	d008      	beq.n	800088e <EXTI9_5_IRQHandler+0x5e>
 800087c:	4b14      	ldr	r3, [pc, #80]	; (80008d0 <EXTI9_5_IRQHandler+0xa0>)
 800087e:	695b      	ldr	r3, [r3, #20]
 8000880:	4a13      	ldr	r2, [pc, #76]	; (80008d0 <EXTI9_5_IRQHandler+0xa0>)
 8000882:	f043 0380 	orr.w	r3, r3, #128	; 0x80
 8000886:	6153      	str	r3, [r2, #20]
 8000888:	4b12      	ldr	r3, [pc, #72]	; (80008d4 <EXTI9_5_IRQHandler+0xa4>)
 800088a:	69db      	ldr	r3, [r3, #28]
 800088c:	4798      	blx	r3
 800088e:	4b10      	ldr	r3, [pc, #64]	; (80008d0 <EXTI9_5_IRQHandler+0xa0>)
 8000890:	695b      	ldr	r3, [r3, #20]
 8000892:	f403 7380 	and.w	r3, r3, #256	; 0x100
 8000896:	2b00      	cmp	r3, #0
 8000898:	d008      	beq.n	80008ac <EXTI9_5_IRQHandler+0x7c>
 800089a:	4b0d      	ldr	r3, [pc, #52]	; (80008d0 <EXTI9_5_IRQHandler+0xa0>)
 800089c:	695b      	ldr	r3, [r3, #20]
 800089e:	4a0c      	ldr	r2, [pc, #48]	; (80008d0 <EXTI9_5_IRQHandler+0xa0>)
 80008a0:	f443 7380 	orr.w	r3, r3, #256	; 0x100
 80008a4:	6153      	str	r3, [r2, #20]
 80008a6:	4b0b      	ldr	r3, [pc, #44]	; (80008d4 <EXTI9_5_IRQHandler+0xa4>)
 80008a8:	6a1b      	ldr	r3, [r3, #32]
 80008aa:	4798      	blx	r3
 80008ac:	4b08      	ldr	r3, [pc, #32]	; (80008d0 <EXTI9_5_IRQHandler+0xa0>)
 80008ae:	695b      	ldr	r3, [r3, #20]
 80008b0:	f403 7300 	and.w	r3, r3, #512	; 0x200
 80008b4:	2b00      	cmp	r3, #0
 80008b6:	d008      	beq.n	80008ca <EXTI9_5_IRQHandler+0x9a>
 80008b8:	4b05      	ldr	r3, [pc, #20]	; (80008d0 <EXTI9_5_IRQHandler+0xa0>)
 80008ba:	695b      	ldr	r3, [r3, #20]
 80008bc:	4a04      	ldr	r2, [pc, #16]	; (80008d0 <EXTI9_5_IRQHandler+0xa0>)
 80008be:	f443 7300 	orr.w	r3, r3, #512	; 0x200
 80008c2:	6153      	str	r3, [r2, #20]
 80008c4:	4b03      	ldr	r3, [pc, #12]	; (80008d4 <EXTI9_5_IRQHandler+0xa4>)
 80008c6:	6a5b      	ldr	r3, [r3, #36]	; 0x24
 80008c8:	4798      	blx	r3
 80008ca:	bf00      	nop
 80008cc:	bd80      	pop	{r7, pc}
 80008ce:	bf00      	nop
 80008d0:	40010400 	andmi	r0, r1, r0, lsl #8
 80008d4:	2000002c 	andcs	r0, r0, ip, lsr #32

080008d8 <EXTI15_10_IRQHandler>:
 80008d8:	b580      	push	{r7, lr}
 80008da:	af00      	add	r7, sp, #0
 80008dc:	4b2d      	ldr	r3, [pc, #180]	; (8000994 <EXTI15_10_IRQHandler+0xbc>)
 80008de:	695b      	ldr	r3, [r3, #20]
 80008e0:	f403 6380 	and.w	r3, r3, #1024	; 0x400
 80008e4:	2b00      	cmp	r3, #0
 80008e6:	d008      	beq.n	80008fa <EXTI15_10_IRQHandler+0x22>
 80008e8:	4b2a      	ldr	r3, [pc, #168]	; (8000994 <EXTI15_10_IRQHandler+0xbc>)
 80008ea:	695b      	ldr	r3, [r3, #20]
 80008ec:	4a29      	ldr	r2, [pc, #164]	; (8000994 <EXTI15_10_IRQHandler+0xbc>)
 80008ee:	f443 6380 	orr.w	r3, r3, #1024	; 0x400
 80008f2:	6153      	str	r3, [r2, #20]
 80008f4:	4b28      	ldr	r3, [pc, #160]	; (8000998 <EXTI15_10_IRQHandler+0xc0>)
 80008f6:	6a9b      	ldr	r3, [r3, #40]	; 0x28
 80008f8:	4798      	blx	r3
 80008fa:	4b26      	ldr	r3, [pc, #152]	; (8000994 <EXTI15_10_IRQHandler+0xbc>)
 80008fc:	695b      	ldr	r3, [r3, #20]
 80008fe:	f403 6300 	and.w	r3, r3, #2048	; 0x800
 8000902:	2b00      	cmp	r3, #0
 8000904:	d008      	beq.n	8000918 <EXTI15_10_IRQHandler+0x40>
 8000906:	4b23      	ldr	r3, [pc, #140]	; (8000994 <EXTI15_10_IRQHandler+0xbc>)
 8000908:	695b      	ldr	r3, [r3, #20]
 800090a:	4a22      	ldr	r2, [pc, #136]	; (8000994 <EXTI15_10_IRQHandler+0xbc>)
 800090c:	f443 6300 	orr.w	r3, r3, #2048	; 0x800
 8000910:	6153      	str	r3, [r2, #20]
 8000912:	4b21      	ldr	r3, [pc, #132]	; (8000998 <EXTI15_10_IRQHandler+0xc0>)
 8000914:	6adb      	ldr	r3, [r3, #44]	; 0x2c
 8000916:	4798      	blx	r3
 8000918:	4b1e      	ldr	r3, [pc, #120]	; (8000994 <EXTI15_10_IRQHandler+0xbc>)
 800091a:	695b      	ldr	r3, [r3, #20]
 800091c:	f403 5380 	and.w	r3, r3, #4096	; 0x1000
 8000920:	2b00      	cmp	r3, #0
 8000922:	d008      	beq.n	8000936 <EXTI15_10_IRQHandler+0x5e>
 8000924:	4b1b      	ldr	r3, [pc, #108]	; (8000994 <EXTI15_10_IRQHandler+0xbc>)
 8000926:	695b      	ldr	r3, [r3, #20]
 8000928:	4a1a      	ldr	r2, [pc, #104]	; (8000994 <EXTI15_10_IRQHandler+0xbc>)
 800092a:	f443 5380 	orr.w	r3, r3, #4096	; 0x1000
 800092e:	6153      	str	r3, [r2, #20]
 8000930:	4b19      	ldr	r3, [pc, #100]	; (8000998 <EXTI15_10_IRQHandler+0xc0>)
 8000932:	6b1b      	ldr	r3, [r3, #48]	; 0x30
 8000934:	4798      	blx	r3
 8000936:	4b17      	ldr	r3, [pc, #92]	; (8000994 <EXTI15_10_IRQHandler+0xbc>)
 8000938:	695b      	ldr	r3, [r3, #20]
 800093a:	f403 5300 	and.w	r3, r3, #8192	; 0x2000
 800093e:	2b00      	cmp	r3, #0
 8000940:	d008      	beq.n	8000954 <EXTI15_10_IRQHandler+0x7c>
 8000942:	4b14      	ldr	r3, [pc, #80]	; (8000994 <EXTI15_10_IRQHandler+0xbc>)
 8000944:	695b      	ldr	r3, [r3, #20]
 8000946:	4a13      	ldr	r2, [pc, #76]	; (8000994 <EXTI15_10_IRQHandler+0xbc>)
 8000948:	f443 5300 	orr.w	r3, r3, #8192	; 0x2000
 800094c:	6153      	str	r3, [r2, #20]
 800094e:	4b12      	ldr	r3, [pc, #72]	; (8000998 <EXTI15_10_IRQHandler+0xc0>)
 8000950:	6b5b      	ldr	r3, [r3, #52]	; 0x34
 8000952:	4798      	blx	r3
 8000954:	4b0f      	ldr	r3, [pc, #60]	; (8000994 <EXTI15_10_IRQHandler+0xbc>)
 8000956:	695b      	ldr	r3, [r3, #20]
 8000958:	f403 4380 	and.w	r3, r3, #16384	; 0x4000
 800095c:	2b00      	cmp	r3, #0
 800095e:	d008      	beq.n	8000972 <EXTI15_10_IRQHandler+0x9a>
 8000960:	4b0c      	ldr	r3, [pc, #48]	; (8000994 <EXTI15_10_IRQHandler+0xbc>)
 8000962:	695b      	ldr	r3, [r3, #20]
 8000964:	4a0b      	ldr	r2, [pc, #44]	; (8000994 <EXTI15_10_IRQHandler+0xbc>)
 8000966:	f443 4380 	orr.w	r3, r3, #16384	; 0x4000
 800096a:	6153      	str	r3, [r2, #20]
 800096c:	4b0a      	ldr	r3, [pc, #40]	; (8000998 <EXTI15_10_IRQHandler+0xc0>)
 800096e:	6b9b      	ldr	r3, [r3, #56]	; 0x38
 8000970:	4798      	blx	r3
 8000972:	4b08      	ldr	r3, [pc, #32]	; (8000994 <EXTI15_10_IRQHandler+0xbc>)
 8000974:	695b      	ldr	r3, [r3, #20]
 8000976:	f403 4380 	and.w	r3, r3, #16384	; 0x4000
 800097a:	2b00      	cmp	r3, #0
 800097c:	d008      	beq.n	8000990 <EXTI15_10_IRQHandler+0xb8>
 800097e:	4b05      	ldr	r3, [pc, #20]	; (8000994 <EXTI15_10_IRQHandler+0xbc>)
 8000980:	695b      	ldr	r3, [r3, #20]
 8000982:	4a04      	ldr	r2, [pc, #16]	; (8000994 <EXTI15_10_IRQHandler+0xbc>)
 8000984:	f443 4300 	orr.w	r3, r3, #32768	; 0x8000
 8000988:	6153      	str	r3, [r2, #20]
 800098a:	4b03      	ldr	r3, [pc, #12]	; (8000998 <EXTI15_10_IRQHandler+0xc0>)
 800098c:	6bdb      	ldr	r3, [r3, #60]	; 0x3c
 800098e:	4798      	blx	r3
 8000990:	bf00      	nop
 8000992:	bd80      	pop	{r7, pc}
 8000994:	40010400 	andmi	r0, r1, r0, lsl #8
 8000998:	2000002c 	andcs	r0, r0, ip, lsr #32

0800099c <Get_CRLH_Position>:
 800099c:	b480      	push	{r7}
 800099e:	b083      	sub	sp, #12
 80009a0:	af00      	add	r7, sp, #0
 80009a2:	4603      	mov	r3, r0
 80009a4:	80fb      	strh	r3, [r7, #6]
 80009a6:	88fb      	ldrh	r3, [r7, #6]
 80009a8:	2b80      	cmp	r3, #128	; 0x80
 80009aa:	d042      	beq.n	8000a32 <Get_CRLH_Position+0x96>
 80009ac:	2b80      	cmp	r3, #128	; 0x80
 80009ae:	dc11      	bgt.n	80009d4 <Get_CRLH_Position+0x38>
 80009b0:	2b08      	cmp	r3, #8
 80009b2:	d036      	beq.n	8000a22 <Get_CRLH_Position+0x86>
 80009b4:	2b08      	cmp	r3, #8
 80009b6:	dc06      	bgt.n	80009c6 <Get_CRLH_Position+0x2a>
 80009b8:	2b02      	cmp	r3, #2
 80009ba:	d02e      	beq.n	8000a1a <Get_CRLH_Position+0x7e>
 80009bc:	2b04      	cmp	r3, #4
 80009be:	d02e      	beq.n	8000a1e <Get_CRLH_Position+0x82>
 80009c0:	2b01      	cmp	r3, #1
 80009c2:	d028      	beq.n	8000a16 <Get_CRLH_Position+0x7a>
 80009c4:	e047      	b.n	8000a56 <Get_CRLH_Position+0xba>
 80009c6:	2b20      	cmp	r3, #32
 80009c8:	d02f      	beq.n	8000a2a <Get_CRLH_Position+0x8e>
 80009ca:	2b40      	cmp	r3, #64	; 0x40
 80009cc:	d02f      	beq.n	8000a2e <Get_CRLH_Position+0x92>
 80009ce:	2b10      	cmp	r3, #16
 80009d0:	d029      	beq.n	8000a26 <Get_CRLH_Position+0x8a>
 80009d2:	e040      	b.n	8000a56 <Get_CRLH_Position+0xba>
 80009d4:	f5b3 6f00 	cmp.w	r3, #2048	; 0x800
 80009d8:	d033      	beq.n	8000a42 <Get_CRLH_Position+0xa6>
 80009da:	f5b3 6f00 	cmp.w	r3, #2048	; 0x800
 80009de:	dc09      	bgt.n	80009f4 <Get_CRLH_Position+0x58>
 80009e0:	f5b3 7f00 	cmp.w	r3, #512	; 0x200
 80009e4:	d029      	beq.n	8000a3a <Get_CRLH_Position+0x9e>
 80009e6:	f5b3 6f80 	cmp.w	r3, #1024	; 0x400
 80009ea:	d028      	beq.n	8000a3e <Get_CRLH_Position+0xa2>
 80009ec:	f5b3 7f80 	cmp.w	r3, #256	; 0x100
 80009f0:	d021      	beq.n	8000a36 <Get_CRLH_Position+0x9a>
 80009f2:	e030      	b.n	8000a56 <Get_CRLH_Position+0xba>
 80009f4:	f5b3 5f00 	cmp.w	r3, #8192	; 0x2000
 80009f8:	d027      	beq.n	8000a4a <Get_CRLH_Position+0xae>
 80009fa:	f5b3 5f00 	cmp.w	r3, #8192	; 0x2000
 80009fe:	dc03      	bgt.n	8000a08 <Get_CRLH_Position+0x6c>
 8000a00:	f5b3 5f80 	cmp.w	r3, #4096	; 0x1000
 8000a04:	d01f      	beq.n	8000a46 <Get_CRLH_Position+0xaa>
 8000a06:	e026      	b.n	8000a56 <Get_CRLH_Position+0xba>
 8000a08:	f5b3 4f80 	cmp.w	r3, #16384	; 0x4000
 8000a0c:	d01f      	beq.n	8000a4e <Get_CRLH_Position+0xb2>
 8000a0e:	f5b3 4f00 	cmp.w	r3, #32768	; 0x8000
 8000a12:	d01e      	beq.n	8000a52 <Get_CRLH_Position+0xb6>
 8000a14:	e01f      	b.n	8000a56 <Get_CRLH_Position+0xba>
 8000a16:	2300      	movs	r3, #0
 8000a18:	e01e      	b.n	8000a58 <Get_CRLH_Position+0xbc>
 8000a1a:	2304      	movs	r3, #4
 8000a1c:	e01c      	b.n	8000a58 <Get_CRLH_Position+0xbc>
 8000a1e:	2308      	movs	r3, #8
 8000a20:	e01a      	b.n	8000a58 <Get_CRLH_Position+0xbc>
 8000a22:	230c      	movs	r3, #12
 8000a24:	e018      	b.n	8000a58 <Get_CRLH_Position+0xbc>
 8000a26:	2310      	movs	r3, #16
 8000a28:	e016      	b.n	8000a58 <Get_CRLH_Position+0xbc>
 8000a2a:	2314      	movs	r3, #20
 8000a2c:	e014      	b.n	8000a58 <Get_CRLH_Position+0xbc>
 8000a2e:	2318      	movs	r3, #24
 8000a30:	e012      	b.n	8000a58 <Get_CRLH_Position+0xbc>
 8000a32:	231c      	movs	r3, #28
 8000a34:	e010      	b.n	8000a58 <Get_CRLH_Position+0xbc>
 8000a36:	2300      	movs	r3, #0
 8000a38:	e00e      	b.n	8000a58 <Get_CRLH_Position+0xbc>
 8000a3a:	2304      	movs	r3, #4
 8000a3c:	e00c      	b.n	8000a58 <Get_CRLH_Position+0xbc>
 8000a3e:	2308      	movs	r3, #8
 8000a40:	e00a      	b.n	8000a58 <Get_CRLH_Position+0xbc>
 8000a42:	230c      	movs	r3, #12
 8000a44:	e008      	b.n	8000a58 <Get_CRLH_Position+0xbc>
 8000a46:	2310      	movs	r3, #16
 8000a48:	e006      	b.n	8000a58 <Get_CRLH_Position+0xbc>
 8000a4a:	2314      	movs	r3, #20
 8000a4c:	e004      	b.n	8000a58 <Get_CRLH_Position+0xbc>
 8000a4e:	2318      	movs	r3, #24
 8000a50:	e002      	b.n	8000a58 <Get_CRLH_Position+0xbc>
 8000a52:	231c      	movs	r3, #28
 8000a54:	e000      	b.n	8000a58 <Get_CRLH_Position+0xbc>
 8000a56:	2300      	movs	r3, #0
 8000a58:	4618      	mov	r0, r3
 8000a5a:	370c      	adds	r7, #12
 8000a5c:	46bd      	mov	sp, r7
 8000a5e:	bc80      	pop	{r7}
 8000a60:	4770      	bx	lr

08000a62 <MCAL_GPIO_Init>:
 8000a62:	b590      	push	{r4, r7, lr}
 8000a64:	b085      	sub	sp, #20
 8000a66:	af00      	add	r7, sp, #0
 8000a68:	6078      	str	r0, [r7, #4]
 8000a6a:	6039      	str	r1, [r7, #0]
 8000a6c:	2300      	movs	r3, #0
 8000a6e:	60bb      	str	r3, [r7, #8]
 8000a70:	2300      	movs	r3, #0
 8000a72:	73fb      	strb	r3, [r7, #15]
 8000a74:	683b      	ldr	r3, [r7, #0]
 8000a76:	881b      	ldrh	r3, [r3, #0]
 8000a78:	2bff      	cmp	r3, #255	; 0xff
 8000a7a:	d801      	bhi.n	8000a80 <MCAL_GPIO_Init+0x1e>
 8000a7c:	687b      	ldr	r3, [r7, #4]
 8000a7e:	e001      	b.n	8000a84 <MCAL_GPIO_Init+0x22>
 8000a80:	687b      	ldr	r3, [r7, #4]
 8000a82:	3304      	adds	r3, #4
 8000a84:	60bb      	str	r3, [r7, #8]
 8000a86:	683b      	ldr	r3, [r7, #0]
 8000a88:	881b      	ldrh	r3, [r3, #0]
 8000a8a:	4618      	mov	r0, r3
 8000a8c:	f7ff ff86 	bl	800099c <Get_CRLH_Position>
 8000a90:	4603      	mov	r3, r0
 8000a92:	461a      	mov	r2, r3
 8000a94:	230f      	movs	r3, #15
 8000a96:	4093      	lsls	r3, r2
 8000a98:	43da      	mvns	r2, r3
 8000a9a:	68bb      	ldr	r3, [r7, #8]
 8000a9c:	681b      	ldr	r3, [r3, #0]
 8000a9e:	401a      	ands	r2, r3
 8000aa0:	68bb      	ldr	r3, [r7, #8]
 8000aa2:	601a      	str	r2, [r3, #0]
 8000aa4:	683b      	ldr	r3, [r7, #0]
 8000aa6:	789b      	ldrb	r3, [r3, #2]
 8000aa8:	2b07      	cmp	r3, #7
 8000aaa:	d00b      	beq.n	8000ac4 <MCAL_GPIO_Init+0x62>
 8000aac:	683b      	ldr	r3, [r7, #0]
 8000aae:	789b      	ldrb	r3, [r3, #2]
 8000ab0:	2b06      	cmp	r3, #6
 8000ab2:	d007      	beq.n	8000ac4 <MCAL_GPIO_Init+0x62>
 8000ab4:	683b      	ldr	r3, [r7, #0]
 8000ab6:	789b      	ldrb	r3, [r3, #2]
 8000ab8:	2b05      	cmp	r3, #5
 8000aba:	d003      	beq.n	8000ac4 <MCAL_GPIO_Init+0x62>
 8000abc:	683b      	ldr	r3, [r7, #0]
 8000abe:	789b      	ldrb	r3, [r3, #2]
 8000ac0:	2b04      	cmp	r3, #4
 8000ac2:	d10e      	bne.n	8000ae2 <MCAL_GPIO_Init+0x80>
 8000ac4:	683b      	ldr	r3, [r7, #0]
 8000ac6:	789b      	ldrb	r3, [r3, #2]
 8000ac8:	3b04      	subs	r3, #4
 8000aca:	009b      	lsls	r3, r3, #2
 8000acc:	b25a      	sxtb	r2, r3
 8000ace:	683b      	ldr	r3, [r7, #0]
 8000ad0:	78db      	ldrb	r3, [r3, #3]
 8000ad2:	b25b      	sxtb	r3, r3
 8000ad4:	4313      	orrs	r3, r2
 8000ad6:	b25b      	sxtb	r3, r3
 8000ad8:	b2db      	uxtb	r3, r3
 8000ada:	f003 030f 	and.w	r3, r3, #15
 8000ade:	73fb      	strb	r3, [r7, #15]
 8000ae0:	e02c      	b.n	8000b3c <MCAL_GPIO_Init+0xda>
 8000ae2:	683b      	ldr	r3, [r7, #0]
 8000ae4:	789b      	ldrb	r3, [r3, #2]
 8000ae6:	2b01      	cmp	r3, #1
 8000ae8:	d003      	beq.n	8000af2 <MCAL_GPIO_Init+0x90>
 8000aea:	683b      	ldr	r3, [r7, #0]
 8000aec:	789b      	ldrb	r3, [r3, #2]
 8000aee:	2b00      	cmp	r3, #0
 8000af0:	d107      	bne.n	8000b02 <MCAL_GPIO_Init+0xa0>
 8000af2:	683b      	ldr	r3, [r7, #0]
 8000af4:	789b      	ldrb	r3, [r3, #2]
 8000af6:	009b      	lsls	r3, r3, #2
 8000af8:	b2db      	uxtb	r3, r3
 8000afa:	f003 030f 	and.w	r3, r3, #15
 8000afe:	73fb      	strb	r3, [r7, #15]
 8000b00:	e01c      	b.n	8000b3c <MCAL_GPIO_Init+0xda>
 8000b02:	683b      	ldr	r3, [r7, #0]
 8000b04:	789b      	ldrb	r3, [r3, #2]
 8000b06:	2b08      	cmp	r3, #8
 8000b08:	d102      	bne.n	8000b10 <MCAL_GPIO_Init+0xae>
 8000b0a:	2304      	movs	r3, #4
 8000b0c:	73fb      	strb	r3, [r7, #15]
 8000b0e:	e015      	b.n	8000b3c <MCAL_GPIO_Init+0xda>
 8000b10:	2308      	movs	r3, #8
 8000b12:	73fb      	strb	r3, [r7, #15]
 8000b14:	683b      	ldr	r3, [r7, #0]
 8000b16:	789b      	ldrb	r3, [r3, #2]
 8000b18:	2b02      	cmp	r3, #2
 8000b1a:	d107      	bne.n	8000b2c <MCAL_GPIO_Init+0xca>
 8000b1c:	687b      	ldr	r3, [r7, #4]
 8000b1e:	68db      	ldr	r3, [r3, #12]
 8000b20:	683a      	ldr	r2, [r7, #0]
 8000b22:	8812      	ldrh	r2, [r2, #0]
 8000b24:	431a      	orrs	r2, r3
 8000b26:	687b      	ldr	r3, [r7, #4]
 8000b28:	60da      	str	r2, [r3, #12]
 8000b2a:	e007      	b.n	8000b3c <MCAL_GPIO_Init+0xda>
 8000b2c:	687b      	ldr	r3, [r7, #4]
 8000b2e:	68db      	ldr	r3, [r3, #12]
 8000b30:	683a      	ldr	r2, [r7, #0]
 8000b32:	8812      	ldrh	r2, [r2, #0]
 8000b34:	43d2      	mvns	r2, r2
 8000b36:	401a      	ands	r2, r3
 8000b38:	687b      	ldr	r3, [r7, #4]
 8000b3a:	60da      	str	r2, [r3, #12]
 8000b3c:	7bfc      	ldrb	r4, [r7, #15]
 8000b3e:	683b      	ldr	r3, [r7, #0]
 8000b40:	881b      	ldrh	r3, [r3, #0]
 8000b42:	4618      	mov	r0, r3
 8000b44:	f7ff ff2a 	bl	800099c <Get_CRLH_Position>
 8000b48:	4603      	mov	r3, r0
 8000b4a:	fa04 f203 	lsl.w	r2, r4, r3
 8000b4e:	68bb      	ldr	r3, [r7, #8]
 8000b50:	681b      	ldr	r3, [r3, #0]
 8000b52:	431a      	orrs	r2, r3
 8000b54:	68bb      	ldr	r3, [r7, #8]
 8000b56:	601a      	str	r2, [r3, #0]
 8000b58:	bf00      	nop
 8000b5a:	3714      	adds	r7, #20
 8000b5c:	46bd      	mov	sp, r7
 8000b5e:	bd90      	pop	{r4, r7, pc}

08000b60 <Slave_States>:
 8000b60:	b580      	push	{r7, lr}
 8000b62:	b084      	sub	sp, #16
 8000b64:	af00      	add	r7, sp, #0
 8000b66:	6078      	str	r0, [r7, #4]
 8000b68:	460b      	mov	r3, r1
 8000b6a:	70fb      	strb	r3, [r7, #3]
 8000b6c:	687b      	ldr	r3, [r7, #4]
 8000b6e:	4a32      	ldr	r2, [pc, #200]	; (8000c38 <Slave_States+0xd8>)
 8000b70:	4293      	cmp	r3, r2
 8000b72:	bf14      	ite	ne
 8000b74:	2301      	movne	r3, #1
 8000b76:	2300      	moveq	r3, #0
 8000b78:	b2db      	uxtb	r3, r3
 8000b7a:	73fb      	strb	r3, [r7, #15]
 8000b7c:	78fb      	ldrb	r3, [r7, #3]
 8000b7e:	2b04      	cmp	r3, #4
 8000b80:	d856      	bhi.n	8000c30 <Slave_States+0xd0>
 8000b82:	a201      	add	r2, pc, #4	; (adr r2, 8000b88 <Slave_States+0x28>)
 8000b84:	f852 f023 	ldr.w	pc, [r2, r3, lsl #2]
 8000b88:	08000ba3 	stmdaeq	r0, {r0, r1, r5, r7, r8, r9, fp}
 8000b8c:	08000b9d 	stmdaeq	r0, {r0, r2, r3, r4, r7, r8, r9, fp}
 8000b90:	08000bc7 	stmdaeq	r0, {r0, r1, r2, r6, r7, r8, r9, fp}
 8000b94:	08000bdf 	stmdaeq	r0, {r0, r1, r2, r3, r4, r6, r7, r8, r9, fp}
 8000b98:	08000c03 	stmdaeq	r0, {r0, r1, sl, fp}
 8000b9c:	687b      	ldr	r3, [r7, #4]
 8000b9e:	699b      	ldr	r3, [r3, #24]
 8000ba0:	e046      	b.n	8000c30 <Slave_States+0xd0>
 8000ba2:	687b      	ldr	r3, [r7, #4]
 8000ba4:	699b      	ldr	r3, [r3, #24]
 8000ba6:	f003 0304 	and.w	r3, r3, #4
 8000baa:	2b00      	cmp	r3, #0
 8000bac:	d03b      	beq.n	8000c26 <Slave_States+0xc6>
 8000bae:	7bfa      	ldrb	r2, [r7, #15]
 8000bb0:	4922      	ldr	r1, [pc, #136]	; (8000c3c <Slave_States+0xdc>)
 8000bb2:	4613      	mov	r3, r2
 8000bb4:	00db      	lsls	r3, r3, #3
 8000bb6:	4413      	add	r3, r2
 8000bb8:	009b      	lsls	r3, r3, #2
 8000bba:	440b      	add	r3, r1
 8000bbc:	3320      	adds	r3, #32
 8000bbe:	681b      	ldr	r3, [r3, #0]
 8000bc0:	2000      	movs	r0, #0
 8000bc2:	4798      	blx	r3
 8000bc4:	e02f      	b.n	8000c26 <Slave_States+0xc6>
 8000bc6:	7bfa      	ldrb	r2, [r7, #15]
 8000bc8:	491c      	ldr	r1, [pc, #112]	; (8000c3c <Slave_States+0xdc>)
 8000bca:	4613      	mov	r3, r2
 8000bcc:	00db      	lsls	r3, r3, #3
 8000bce:	4413      	add	r3, r2
 8000bd0:	009b      	lsls	r3, r3, #2
 8000bd2:	440b      	add	r3, r1
 8000bd4:	3320      	adds	r3, #32
 8000bd6:	681b      	ldr	r3, [r3, #0]
 8000bd8:	2002      	movs	r0, #2
 8000bda:	4798      	blx	r3
 8000bdc:	e028      	b.n	8000c30 <Slave_States+0xd0>
 8000bde:	687b      	ldr	r3, [r7, #4]
 8000be0:	699b      	ldr	r3, [r3, #24]
 8000be2:	f003 0304 	and.w	r3, r3, #4
 8000be6:	2b00      	cmp	r3, #0
 8000be8:	d01f      	beq.n	8000c2a <Slave_States+0xca>
 8000bea:	7bfa      	ldrb	r2, [r7, #15]
 8000bec:	4913      	ldr	r1, [pc, #76]	; (8000c3c <Slave_States+0xdc>)
 8000bee:	4613      	mov	r3, r2
 8000bf0:	00db      	lsls	r3, r3, #3
 8000bf2:	4413      	add	r3, r2
 8000bf4:	009b      	lsls	r3, r3, #2
 8000bf6:	440b      	add	r3, r1
 8000bf8:	3320      	adds	r3, #32
 8000bfa:	681b      	ldr	r3, [r3, #0]
 8000bfc:	2003      	movs	r0, #3
 8000bfe:	4798      	blx	r3
 8000c00:	e013      	b.n	8000c2a <Slave_States+0xca>
 8000c02:	687b      	ldr	r3, [r7, #4]
 8000c04:	699b      	ldr	r3, [r3, #24]
 8000c06:	f003 0304 	and.w	r3, r3, #4
 8000c0a:	2b00      	cmp	r3, #0
 8000c0c:	d10f      	bne.n	8000c2e <Slave_States+0xce>
 8000c0e:	7bfa      	ldrb	r2, [r7, #15]
 8000c10:	490a      	ldr	r1, [pc, #40]	; (8000c3c <Slave_States+0xdc>)
 8000c12:	4613      	mov	r3, r2
 8000c14:	00db      	lsls	r3, r3, #3
 8000c16:	4413      	add	r3, r2
 8000c18:	009b      	lsls	r3, r3, #2
 8000c1a:	440b      	add	r3, r1
 8000c1c:	3320      	adds	r3, #32
 8000c1e:	681b      	ldr	r3, [r3, #0]
 8000c20:	2004      	movs	r0, #4
 8000c22:	4798      	blx	r3
 8000c24:	e003      	b.n	8000c2e <Slave_States+0xce>
 8000c26:	bf00      	nop
 8000c28:	e002      	b.n	8000c30 <Slave_States+0xd0>
 8000c2a:	bf00      	nop
 8000c2c:	e000      	b.n	8000c30 <Slave_States+0xd0>
 8000c2e:	bf00      	nop
 8000c30:	bf00      	nop
 8000c32:	3710      	adds	r7, #16
 8000c34:	46bd      	mov	sp, r7
 8000c36:	bd80      	pop	{r7, pc}
 8000c38:	40005400 	andmi	r5, r0, r0, lsl #8
 8000c3c:	20000068 	andcs	r0, r0, r8, rrx

08000c40 <I2C1_EV_IRQHandler>:
 8000c40:	b580      	push	{r7, lr}
 8000c42:	b086      	sub	sp, #24
 8000c44:	af00      	add	r7, sp, #0
 8000c46:	2300      	movs	r3, #0
 8000c48:	607b      	str	r3, [r7, #4]
 8000c4a:	4b35      	ldr	r3, [pc, #212]	; (8000d20 <I2C1_EV_IRQHandler+0xe0>)
 8000c4c:	617b      	str	r3, [r7, #20]
 8000c4e:	697b      	ldr	r3, [r7, #20]
 8000c50:	685b      	ldr	r3, [r3, #4]
 8000c52:	f403 7300 	and.w	r3, r3, #512	; 0x200
 8000c56:	613b      	str	r3, [r7, #16]
 8000c58:	697b      	ldr	r3, [r7, #20]
 8000c5a:	685b      	ldr	r3, [r3, #4]
 8000c5c:	f403 6380 	and.w	r3, r3, #1024	; 0x400
 8000c60:	60fb      	str	r3, [r7, #12]
 8000c62:	697b      	ldr	r3, [r7, #20]
 8000c64:	695b      	ldr	r3, [r3, #20]
 8000c66:	f003 0310 	and.w	r3, r3, #16
 8000c6a:	60bb      	str	r3, [r7, #8]
 8000c6c:	693b      	ldr	r3, [r7, #16]
 8000c6e:	2b00      	cmp	r3, #0
 8000c70:	d00c      	beq.n	8000c8c <I2C1_EV_IRQHandler+0x4c>
 8000c72:	68bb      	ldr	r3, [r7, #8]
 8000c74:	2b00      	cmp	r3, #0
 8000c76:	d009      	beq.n	8000c8c <I2C1_EV_IRQHandler+0x4c>
 8000c78:	697b      	ldr	r3, [r7, #20]
 8000c7a:	695b      	ldr	r3, [r3, #20]
 8000c7c:	607b      	str	r3, [r7, #4]
 8000c7e:	697b      	ldr	r3, [r7, #20]
 8000c80:	2200      	movs	r2, #0
 8000c82:	601a      	str	r2, [r3, #0]
 8000c84:	2100      	movs	r1, #0
 8000c86:	6978      	ldr	r0, [r7, #20]
 8000c88:	f7ff ff6a 	bl	8000b60 <Slave_States>
 8000c8c:	697b      	ldr	r3, [r7, #20]
 8000c8e:	695b      	ldr	r3, [r3, #20]
 8000c90:	f003 0302 	and.w	r3, r3, #2
 8000c94:	60bb      	str	r3, [r7, #8]
 8000c96:	693b      	ldr	r3, [r7, #16]
 8000c98:	2b00      	cmp	r3, #0
 8000c9a:	d012      	beq.n	8000cc2 <I2C1_EV_IRQHandler+0x82>
 8000c9c:	68bb      	ldr	r3, [r7, #8]
 8000c9e:	2b00      	cmp	r3, #0
 8000ca0:	d00f      	beq.n	8000cc2 <I2C1_EV_IRQHandler+0x82>
 8000ca2:	697b      	ldr	r3, [r7, #20]
 8000ca4:	699b      	ldr	r3, [r3, #24]
 8000ca6:	f003 0301 	and.w	r3, r3, #1
 8000caa:	2b00      	cmp	r3, #0
 8000cac:	d109      	bne.n	8000cc2 <I2C1_EV_IRQHandler+0x82>
 8000cae:	697b      	ldr	r3, [r7, #20]
 8000cb0:	695b      	ldr	r3, [r3, #20]
 8000cb2:	607b      	str	r3, [r7, #4]
 8000cb4:	697b      	ldr	r3, [r7, #20]
 8000cb6:	699b      	ldr	r3, [r3, #24]
 8000cb8:	607b      	str	r3, [r7, #4]
 8000cba:	2102      	movs	r1, #2
 8000cbc:	6978      	ldr	r0, [r7, #20]
 8000cbe:	f7ff ff4f 	bl	8000b60 <Slave_States>
 8000cc2:	697b      	ldr	r3, [r7, #20]
 8000cc4:	695b      	ldr	r3, [r3, #20]
 8000cc6:	f003 0380 	and.w	r3, r3, #128	; 0x80
 8000cca:	60bb      	str	r3, [r7, #8]
 8000ccc:	693b      	ldr	r3, [r7, #16]
 8000cce:	2b00      	cmp	r3, #0
 8000cd0:	d00c      	beq.n	8000cec <I2C1_EV_IRQHandler+0xac>
 8000cd2:	68bb      	ldr	r3, [r7, #8]
 8000cd4:	2b00      	cmp	r3, #0
 8000cd6:	d009      	beq.n	8000cec <I2C1_EV_IRQHandler+0xac>
 8000cd8:	697b      	ldr	r3, [r7, #20]
 8000cda:	699b      	ldr	r3, [r3, #24]
 8000cdc:	f003 0301 	and.w	r3, r3, #1
 8000ce0:	2b00      	cmp	r3, #0
 8000ce2:	d103      	bne.n	8000cec <I2C1_EV_IRQHandler+0xac>
 8000ce4:	2103      	movs	r1, #3
 8000ce6:	6978      	ldr	r0, [r7, #20]
 8000ce8:	f7ff ff3a 	bl	8000b60 <Slave_States>
 8000cec:	697b      	ldr	r3, [r7, #20]
 8000cee:	695b      	ldr	r3, [r3, #20]
 8000cf0:	f003 0340 	and.w	r3, r3, #64	; 0x40
 8000cf4:	60bb      	str	r3, [r7, #8]
 8000cf6:	693b      	ldr	r3, [r7, #16]
 8000cf8:	2b00      	cmp	r3, #0
 8000cfa:	d00c      	beq.n	8000d16 <I2C1_EV_IRQHandler+0xd6>
 8000cfc:	68bb      	ldr	r3, [r7, #8]
 8000cfe:	2b00      	cmp	r3, #0
 8000d00:	d009      	beq.n	8000d16 <I2C1_EV_IRQHandler+0xd6>
 8000d02:	697b      	ldr	r3, [r7, #20]
 8000d04:	699b      	ldr	r3, [r3, #24]
 8000d06:	f003 0301 	and.w	r3, r3, #1
 8000d0a:	2b00      	cmp	r3, #0
 8000d0c:	d103      	bne.n	8000d16 <I2C1_EV_IRQHandler+0xd6>
 8000d0e:	2104      	movs	r1, #4
 8000d10:	6978      	ldr	r0, [r7, #20]
 8000d12:	f7ff ff25 	bl	8000b60 <Slave_States>
 8000d16:	bf00      	nop
 8000d18:	3718      	adds	r7, #24
 8000d1a:	46bd      	mov	sp, r7
 8000d1c:	bd80      	pop	{r7, pc}
 8000d1e:	bf00      	nop
 8000d20:	40005400 	andmi	r5, r0, r0, lsl #8

08000d24 <I2C1_ER_IRQHandler>:
 8000d24:	b480      	push	{r7}
 8000d26:	af00      	add	r7, sp, #0
 8000d28:	bf00      	nop
 8000d2a:	46bd      	mov	sp, r7
 8000d2c:	bc80      	pop	{r7}
 8000d2e:	4770      	bx	lr

08000d30 <I2C2_EV_IRQHandler>:
 8000d30:	b480      	push	{r7}
 8000d32:	af00      	add	r7, sp, #0
 8000d34:	bf00      	nop
 8000d36:	46bd      	mov	sp, r7
 8000d38:	bc80      	pop	{r7}
 8000d3a:	4770      	bx	lr

08000d3c <I2C2_ER_IRQHandler>:
 8000d3c:	b480      	push	{r7}
 8000d3e:	af00      	add	r7, sp, #0
 8000d40:	bf00      	nop
 8000d42:	46bd      	mov	sp, r7
 8000d44:	bc80      	pop	{r7}
 8000d46:	4770      	bx	lr

08000d48 <SPI1_IRQHandler>:
 8000d48:	b580      	push	{r7, lr}
 8000d4a:	b082      	sub	sp, #8
 8000d4c:	af00      	add	r7, sp, #0
 8000d4e:	4b13      	ldr	r3, [pc, #76]	; (8000d9c <SPI1_IRQHandler+0x54>)
 8000d50:	689b      	ldr	r3, [r3, #8]
 8000d52:	085b      	lsrs	r3, r3, #1
 8000d54:	f003 0301 	and.w	r3, r3, #1
 8000d58:	b2da      	uxtb	r2, r3
 8000d5a:	793b      	ldrb	r3, [r7, #4]
 8000d5c:	f362 0300 	bfi	r3, r2, #0, #1
 8000d60:	713b      	strb	r3, [r7, #4]
 8000d62:	4b0e      	ldr	r3, [pc, #56]	; (8000d9c <SPI1_IRQHandler+0x54>)
 8000d64:	689b      	ldr	r3, [r3, #8]
 8000d66:	f003 0301 	and.w	r3, r3, #1
 8000d6a:	b2da      	uxtb	r2, r3
 8000d6c:	793b      	ldrb	r3, [r7, #4]
 8000d6e:	f362 0341 	bfi	r3, r2, #1, #1
 8000d72:	713b      	strb	r3, [r7, #4]
 8000d74:	4b09      	ldr	r3, [pc, #36]	; (8000d9c <SPI1_IRQHandler+0x54>)
 8000d76:	689b      	ldr	r3, [r3, #8]
 8000d78:	091b      	lsrs	r3, r3, #4
 8000d7a:	f003 0301 	and.w	r3, r3, #1
 8000d7e:	b2da      	uxtb	r2, r3
 8000d80:	793b      	ldrb	r3, [r7, #4]
 8000d82:	f362 0382 	bfi	r3, r2, #2, #1
 8000d86:	713b      	strb	r3, [r7, #4]
 8000d88:	4b05      	ldr	r3, [pc, #20]	; (8000da0 <SPI1_IRQHandler+0x58>)
 8000d8a:	681b      	ldr	r3, [r3, #0]
 8000d8c:	695b      	ldr	r3, [r3, #20]
 8000d8e:	7938      	ldrb	r0, [r7, #4]
 8000d90:	4798      	blx	r3
 8000d92:	bf00      	nop
 8000d94:	3708      	adds	r7, #8
 8000d96:	46bd      	mov	sp, r7
 8000d98:	bd80      	pop	{r7, pc}
 8000d9a:	bf00      	nop
 8000d9c:	40013000 	andmi	r3, r1, r0
 8000da0:	200000b0 	strhcs	r0, [r0], -r0	; <UNPREDICTABLE>

08000da4 <SPI2_IRQHandler>:
 8000da4:	b580      	push	{r7, lr}
 8000da6:	b082      	sub	sp, #8
 8000da8:	af00      	add	r7, sp, #0
 8000daa:	4b13      	ldr	r3, [pc, #76]	; (8000df8 <SPI2_IRQHandler+0x54>)
 8000dac:	689b      	ldr	r3, [r3, #8]
 8000dae:	085b      	lsrs	r3, r3, #1
 8000db0:	f003 0301 	and.w	r3, r3, #1
 8000db4:	b2da      	uxtb	r2, r3
 8000db6:	793b      	ldrb	r3, [r7, #4]
 8000db8:	f362 0300 	bfi	r3, r2, #0, #1
 8000dbc:	713b      	strb	r3, [r7, #4]
 8000dbe:	4b0e      	ldr	r3, [pc, #56]	; (8000df8 <SPI2_IRQHandler+0x54>)
 8000dc0:	689b      	ldr	r3, [r3, #8]
 8000dc2:	f003 0301 	and.w	r3, r3, #1
 8000dc6:	b2da      	uxtb	r2, r3
 8000dc8:	793b      	ldrb	r3, [r7, #4]
 8000dca:	f362 0341 	bfi	r3, r2, #1, #1
 8000dce:	713b      	strb	r3, [r7, #4]
 8000dd0:	4b09      	ldr	r3, [pc, #36]	; (8000df8 <SPI2_IRQHandler+0x54>)
 8000dd2:	689b      	ldr	r3, [r3, #8]
 8000dd4:	091b      	lsrs	r3, r3, #4
 8000dd6:	f003 0301 	and.w	r3, r3, #1
 8000dda:	b2da      	uxtb	r2, r3
 8000ddc:	793b      	ldrb	r3, [r7, #4]
 8000dde:	f362 0382 	bfi	r3, r2, #2, #1
 8000de2:	713b      	strb	r3, [r7, #4]
 8000de4:	4b05      	ldr	r3, [pc, #20]	; (8000dfc <SPI2_IRQHandler+0x58>)
 8000de6:	685b      	ldr	r3, [r3, #4]
 8000de8:	695b      	ldr	r3, [r3, #20]
 8000dea:	7938      	ldrb	r0, [r7, #4]
 8000dec:	4798      	blx	r3
 8000dee:	bf00      	nop
 8000df0:	3708      	adds	r7, #8
 8000df2:	46bd      	mov	sp, r7
 8000df4:	bd80      	pop	{r7, pc}
 8000df6:	bf00      	nop
 8000df8:	40013000 	andmi	r3, r1, r0
 8000dfc:	200000b0 	strhcs	r0, [r0], -r0	; <UNPREDICTABLE>

08000e00 <USART1_IRQHandler>:
 8000e00:	b580      	push	{r7, lr}
 8000e02:	af00      	add	r7, sp, #0
 8000e04:	4b02      	ldr	r3, [pc, #8]	; (8000e10 <USART1_IRQHandler+0x10>)
 8000e06:	681b      	ldr	r3, [r3, #0]
 8000e08:	691b      	ldr	r3, [r3, #16]
 8000e0a:	4798      	blx	r3
 8000e0c:	bf00      	nop
 8000e0e:	bd80      	pop	{r7, pc}
 8000e10:	200000b8 	strhcs	r0, [r0], -r8

08000e14 <USART2_IRQHandler>:
 8000e14:	b580      	push	{r7, lr}
 8000e16:	af00      	add	r7, sp, #0
 8000e18:	4b02      	ldr	r3, [pc, #8]	; (8000e24 <USART2_IRQHandler+0x10>)
 8000e1a:	681b      	ldr	r3, [r3, #0]
 8000e1c:	691b      	ldr	r3, [r3, #16]
 8000e1e:	4798      	blx	r3
 8000e20:	bf00      	nop
 8000e22:	bd80      	pop	{r7, pc}
 8000e24:	200000b8 	strhcs	r0, [r0], -r8

08000e28 <USART3_IRQHandler>:
 8000e28:	b580      	push	{r7, lr}
 8000e2a:	af00      	add	r7, sp, #0
 8000e2c:	4b02      	ldr	r3, [pc, #8]	; (8000e38 <USART3_IRQHandler+0x10>)
 8000e2e:	681b      	ldr	r3, [r3, #0]
 8000e30:	691b      	ldr	r3, [r3, #16]
 8000e32:	4798      	blx	r3
 8000e34:	bf00      	nop
 8000e36:	bd80      	pop	{r7, pc}
 8000e38:	200000b8 	strhcs	r0, [r0], -r8

08000e3c <__libc_init_array>:
 8000e3c:	b570      	push	{r4, r5, r6, lr}
 8000e3e:	2500      	movs	r5, #0
 8000e40:	4e0c      	ldr	r6, [pc, #48]	; (8000e74 <__libc_init_array+0x38>)
 8000e42:	4c0d      	ldr	r4, [pc, #52]	; (8000e78 <__libc_init_array+0x3c>)
 8000e44:	1ba4      	subs	r4, r4, r6
 8000e46:	10a4      	asrs	r4, r4, #2
 8000e48:	42a5      	cmp	r5, r4
 8000e4a:	d109      	bne.n	8000e60 <__libc_init_array+0x24>
 8000e4c:	f000 f81a 	bl	8000e84 <_init>
 8000e50:	2500      	movs	r5, #0
 8000e52:	4e0a      	ldr	r6, [pc, #40]	; (8000e7c <__libc_init_array+0x40>)
 8000e54:	4c0a      	ldr	r4, [pc, #40]	; (8000e80 <__libc_init_array+0x44>)
 8000e56:	1ba4      	subs	r4, r4, r6
 8000e58:	10a4      	asrs	r4, r4, #2
 8000e5a:	42a5      	cmp	r5, r4
 8000e5c:	d105      	bne.n	8000e6a <__libc_init_array+0x2e>
 8000e5e:	bd70      	pop	{r4, r5, r6, pc}
 8000e60:	f856 3025 	ldr.w	r3, [r6, r5, lsl #2]
 8000e64:	4798      	blx	r3
 8000e66:	3501      	adds	r5, #1
 8000e68:	e7ee      	b.n	8000e48 <__libc_init_array+0xc>
 8000e6a:	f856 3025 	ldr.w	r3, [r6, r5, lsl #2]
 8000e6e:	4798      	blx	r3
 8000e70:	3501      	adds	r5, #1
 8000e72:	e7f2      	b.n	8000e5a <__libc_init_array+0x1e>
 8000e74:	08000ea8 	stmdaeq	r0, {r3, r5, r7, r9, sl, fp}
 8000e78:	08000ea8 	stmdaeq	r0, {r3, r5, r7, r9, sl, fp}
 8000e7c:	08000ea8 	stmdaeq	r0, {r3, r5, r7, r9, sl, fp}
 8000e80:	08000eac 	stmdaeq	r0, {r2, r3, r5, r7, r9, sl, fp}

08000e84 <_init>:
 8000e84:	b5f8      	push	{r3, r4, r5, r6, r7, lr}
 8000e86:	bf00      	nop
 8000e88:	bcf8      	pop	{r3, r4, r5, r6, r7}
 8000e8a:	bc08      	pop	{r3}
 8000e8c:	469e      	mov	lr, r3
 8000e8e:	4770      	bx	lr

08000e90 <_fini>:
 8000e90:	b5f8      	push	{r3, r4, r5, r6, r7, lr}
 8000e92:	bf00      	nop
 8000e94:	bcf8      	pop	{r3, r4, r5, r6, r7}
 8000e96:	bc08      	pop	{r3}
 8000e98:	469e      	mov	lr, r3
 8000e9a:	4770      	bx	lr
